(dp1
S'output'
p2
S"<type 'exceptions.AttributeError'> 'tuple' object has no attribute 'id'"
p3
sS'layer'
p4
S'C:\\web2py\\applications\\test\\views\\default/index.html'
p5
sS'code'
p6
S'response.write(\'\\n<!DOCTYPE html>\\n<html lang="en" >\\n  <head>\\n    <meta charset="utf-8">\\n    <meta http-equiv="X-UA-Compatible" content="IE=edge">\\n    <meta name="viewport" content="width=device-width, initial-scale=1">\\n\\n    <title>Jobplanet - Responsive Job Board HTML Template </title>\\n\\n    <!--favicon-->\\n    <link rel="apple-touch-icon" href="assets/theme/images/apple-touch-icon.png">\\n    <link rel="shortcut icon" href="assets/theme/images/favicon.ico" type="image/x-icon">\\n\\n    <!-- bootstrap -->\\n    <link href="\', escape=False)\nresponse.write(URL(\'static\', \'css/c/bootstrap.min.css\'))\nresponse.write(\'" rel="stylesheet" type="text/css" />\\n\\n\\n    <!-- Icons -->\\n    <link href="\', escape=False)\nresponse.write(URL(\'static\', \'css/font_awesome.min.css\'))\nresponse.write(\'" rel="stylesheet" type="text/css" />\\n\\n    <!-- lightbox -->\\n    <link href="\', escape=False)\nresponse.write(URL(\'static\', \'css/magnific_popup.css\'))\nresponse.write(\'" rel="stylesheet" type="text/css" />\\n\\n    <!-- Themes styles-->\\n    <link href="\', escape=False)\nresponse.write(URL(\'static\', \'css/theme.css\'))\nresponse.write(\'" rel="stylesheet" type="text/css" />\\n\\n    <!-- Your custom css -->\\n    <link href="\', escape=False)\nresponse.write(URL(\'static\', \'css/theme_custom.css\'))\nresponse.write(\'" rel="stylesheet" type="text/css" />\\n\\n\\n    <!-- HTML5 Shim and Respond.js IE8 support of HTML5 elements and media queries -->\\n    <!-- WARNING: Respond.js doesn\\\'t work if you view the page via file:// -->\\n    <!--[if lt IE 9]>\\n      <script src="https://oss.maxcdn.com/html5shiv/3.7.2/html5shiv.min.js"></script>\\n      <script src="https://oss.maxcdn.com/respond/1.4.2/respond.min.js"></script>\\n    <![endif]-->\\n  </head>  \\n  <body>\\n    <!-- wrapper page -->\\n    <div class="wrapper">\\n      <!-- main-header -->\\n      <header class="main-header">\\n\\n\\n        <!-- main navbar -->\\n<!--         <nav class="navbar navbar-default main-navbar hidden-sm hidden-xs">\\n          <div class="container">\\n            <div class="collapse navbar-collapse" id="bs-example-navbar-collapse-1">\\n\\n              <ul class="nav navbar-nav">\\n                <li class="active"><a href="job_list.html"><strong>Find a Job</strong></a></li>\\n                <li class=""><a href="resume_list.html"><strong>Find Resumes</strong></a></li>\\n                <li  class=""><a href="job_post.html"><strong>Post a Job</strong></a></li>\\n \\n              </ul>      \\n              <ul class="nav navbar-nav navbar-right">\\n                <li class="link-btn"><a href="login.html"><span class="btn btn-theme btn-pill btn-xs btn-line">Login</span></a></li>\\n                <li class="link-btn"><a href="register.html"><span class="btn btn-theme  btn-pill btn-xs btn-line">Register</span></a></li>\\n              </ul>\\n            </div>\\n          </div>\\n        </nav> --><!-- end main navbar -->\\n\\n        <!-- mobile navbar -->\\n        <div class="container">\\n          <nav class="mobile-nav hidden-md hidden-lg">\\n            <a href="#" class="btn-nav-toogle first">\\n              <span class="bars"></span>\\n              Menu\\n            </a>\\n            <div class="mobile-nav-block">\\n              <h4>Navigation</h4>\\n              <a href="#" class="btn-nav-toogle">\\n                <span class="barsclose"></span>\\n                Close\\n              </a>      \\n\\n              <ul class="nav navbar-nav">\\n                <li class="active"><a href="job_list.html"><strong>Find a Job</strong></a></li>\\n                <li class=""><a href="resume_list.html"><strong>Find Resumes</strong></a></li>\\n                <li  class=""><a href="job_post_1.html"><strong>Post a Job</strong></a></li>\\n                <li><a href="login.html"><strong>Login</strong></a></li>\\n                <li><a href="register.html"><strong>Register</strong></a></li>\\n                <li class="dropdown">\\n                  <a href="#" class="dropdown-toggle" data-toggle="dropdown" role="button" >Pages <span class="caret"></span></a>\\n                  <ul class="dropdown-menu" role="menu">\\n                    <li><a  href="about.html">About Us</a></li>\\n                    <li><a href="contact.html">Contact Us</a></li>\\n                    <li><a href="blog.html">Articles &amp; Blog</a></li>\\n                    <li><a href="terms_privacy.html">Terms &amp; Privacy</a></li>\\n                    <li><a href="error_404.html">Error 404</a></li>\\n                    <li><a href="shortcode.html">Short Code</a></li>\\n                  </ul>\\n                </li>\\n                <li class="dropdown">\\n                  <a href="#" class="dropdown-toggle" data-toggle="dropdown" role="button" >Features <span class="caret"></span></a>\\n                  <ul class="dropdown-menu" role="menu">\\n                    <li><a href="job_list.html">Find a Job</a></li>\\n                    <li><a href="job_details.html">Job Details</a></li>\\n                    <li><a href="resume_list.html">Find Resumes</a></li>\\n                    <li><a href="resume_details.html">Resume Details</a></li>\\n                    <li><a href="job_post_2.html">Post a Job</a></li>\\n                    <li><a href="company_page.html">Company Profile</a></li>\\n                  </ul>\\n                </li>\\n              </ul>    \\n            </div>\\n          </nav>\\n        </div><!-- mobile navbar -->\\n\\n\\n        <!-- form search area-->\\n        <div class="container">\\n          <div class="row">\\n\\n            <div class="col-md-4">\\n              <!-- logo -->\\n              <div class="logo text-center-sm"> <a href="index.html"><img src="assets/theme/images/logo.png" alt=""></a></div>\\n            </div>\\n\\n            <div class="col-md-8">\\n              <!-- form search -->\\n              <form class="form-search-list">\\n                <div class="row">\\n                  <div class="col-sm-5 col-xs-6 ">\\n                    <div class="form-group">\\n                      <label class="color-white">What</label>\\n                      <input class="form-control" placeholder="job title, keywords or company name" >\\n                    </div>\\n                  </div>\\n                  <div class="col-sm-5 col-xs-6 ">\\n                    <div class="form-group">\\n                      <label class="color-white">Where</label>\\n                      <input class="form-control" placeholder="city, province, or region">\\n                    </div>\\n                  </div>\\n                  <div class="col-sm-2 col-xs-12 ">\\n                    <div class="form-group">\\n                      <label class="hidden-xs">&nbsp;</label>\\n                      <button class="btn btn-block btn-theme  btn-success">Search</button>\\n                    </div>\\n                  </div>\\n                </div>\\n                <p class="text-right"><a href="#modal-advanced" data-toggle="modal" class="link-white">Advanced Search</a></p>\\n              </form>  <!-- form search -->\\n            </div>\\n\\n\\n          </div>\\n\\n\\n          <!-- modal Advanced search -->\\n          <div class="modal fade" id="modal-advanced" >\\n            <div class="modal-dialog ">\\n              <div class="modal-content">\\n                <form>\\n                  <div class="modal-header">\\n                    <button type="button" class="close" data-dismiss="modal" aria-label="Close"><span aria-hidden="true">&times;</span></button>\\n                    <h4 class="modal-title" id="myModalLabel">Advanced Job Search</h4>\\n                  </div>\\n                  <div class="modal-body">\\n                    <h5>Find Jobs</h5>\\n                    <div class="row">\\n                      <div class="col-md-6">\\n                        <div class="form-group">\\n                          <label>With all of these words</label>\\n                          <input type="text" class="form-control " name="text" >\\n                        </div>\\n                      </div>\\n                      <div class="col-md-6">\\n                        <div class="form-group">\\n                          <label>With the exact phrase</label>\\n                          <input type="text" class="form-control " name="text" >\\n                        </div>\\n                      </div>\\n                    </div>\\n                    <div class="form-group">\\n                      <label>Show jobs of type</label>\\n                      <select class="form-control">\\n                        <option value="all">All job types</option>\\n                        <option value="fulltime">Full-time</option>\\n                        <option value="parttime">Part-time</option>\\n                        <option value="contract">Contract</option>\\n                        <option value="internship">Internship</option>\\n                        <option value="temporary">Temporary</option>\\n                      </select>\\n                    </div>\\n                    <div class="white-space-10"></div>\\n                    <h5>Where and When</h5>\\n                    <div class="row">\\n                      <div class="col-md-6">\\n                        <div class="form-group">\\n                          <label>Radius  </label>\\n                          <select id="radius" class="form-control">\\n                            <option value="0">only in</option>\\n                            <option value="5">within 5 kilometers </option>\\n                            <option value="10">within 10 kilometers </option>\\n                            <option value="15">within 15 kilometers </option>\\n                            <option selected="" value="25">within 25 kilometers </option>\\n                            <option value="50">within 50 kilometers </option>\\n                            <option value="100">within 100 kilometers </option>\\n                          </select>\\n                        </div>\\n                      </div>\\n                      <div class="col-md-6">\\n                        <div class="form-group">\\n                          <label>Of  </label>\\n                          <input type="text" class="form-control" maxlength="250" value="United States">\\n                        </div>\\n                      </div>\\n                    </div>\\n                    <div class="row">\\n                      <div class="col-md-6">\\n                        <div class="form-group">\\n                          <label>Age - Jobs published  </label>\\n                          <select class="form-control">\\n                            <option value="any">anytime</option>\\n                            <option value="15">within 15 days</option>\\n                            <option value="7">within 7 days</option>\\n                            <option value="3">within 3 days</option>\\n                            <option value="1">since yesterday</option>\\n                            <option value="last">since my last visit</option>\\n                          </select>\\n                        </div>\\n                      </div>\\n                      <div class="col-md-6">\\n                        <div class="form-group">\\n                          <label>Display</label>\\n                          <select class="form-control">\\n                            <option selected="" value="10">10</option>\\n                            <option value="20">20</option>\\n                            <option value="30">30</option>\\n                            <option value="50">50</option>\\n                          </select>\\n                        </div>\\n                      </div>\\n                    </div>\\n                  </div>\\n                  <div class="modal-footer">\\n                    <button type="button" class="btn btn-default btn-theme" data-dismiss="modal">Close</button>\\n                    <button type="submit" class="btn btn-success btn-theme">Find Jobs</button>\\n                  </div>\\n                </form>\\n              </div>\\n            </div>\\n          </div><!-- end modal forgot password -->\\n\\n\\n\\n\\n        </div><!-- end form search area-->\\n\\n      </header><!-- end main-header -->\\n\\n\\n      <!-- body-content -->\\n      <div class="body-content clearfix" >\\n\\n        <div class="bg-color2">\\n          <div class="container">\\n            <div class="row">\\n              <div class="col-md-9">\\n\\n                <!-- box listing -->\\n                <div class="block-section-sm box-list-area">\\n\\n                  <!-- desc top -->\\n                  <div class="row hidden-xs">\\n                    <div class="col-sm-6  ">\\n                      <p><strong class="color-black">PHP jobs in United States</strong></p>\\n                    </div>\\n                    <div class="col-sm-6">\\n                      <p class="text-right">\\n                        Jobs 1 to 10 of 578\\n                      </p>\\n                    </div>\\n                  </div><!-- end desc top -->\\n\\n                  <!-- item list -->  \\n                  <div class="box-list">\\n\', escape=False)\nfor x in rows:\n    response.write("\\n<div class=\'row\'>\\n   <img class=\'col col-lg-4 col-md-6 col-sm-6 col-xs-12\' src=\'", escape=False)\n    response.write(x[3])\n    response.write("\' alt=\'image\' />\\n   <div class=\'col col-lg-8 col-md-6 col-sm-6 col-xs-12\'>\\n        <p class=\'lead\'>\\n           <b>", escape=False)\n    response.write(x[1])\n    response.write(\'</b>\\n        </p>\\n        <p>\\n          <b>Experience: </b>\', escape=False)\n    response.write(x[6])\n    response.write(\'\\n        </p>\\n        <p>\\n            <b>CTC:</b> \', escape=False)\n    response.write(x[10])\n    response.write(\'\\n        </p>\\n        <p>\\n           <b>Job Location:</b> \', escape=False)\n    response.write(x[11])\n    response.write(\'\\n        </p>\\n        <p>\\n           <b>Openings:</b> \', escape=False)\n    response.write(x[12])\n    response.write(\'\\n        </p>\\n        <p>\\n            <b>Company Name: </b>\', escape=False)\n    response.write(x[7])\n    response.write("\\n        </p>\\n        <p>\\n            <a href=\'", escape=False)\n    response.write(x[9])\n    response.write("\' target=\'_new\'>", escape=False)\n    response.write(x[9])\n    response.write("</a>\\n              <form method=post action=\'proc\'>\\n             <input type=\'hidden\' name=\'productId\' value=\'", escape=False)\n    response.write(x.id)\n    response.write("\' />\\n             <input type=\'hidden\' name=\'productId\' value=\'", escape=False)\n    response.write(x.id)\n    response.write(\'\\\' />\\n             <input type=\\\'text\\\' size=2 name=\\\'qty\\\'  /><input class=\\\'btn-primary\\\' type=\\\'submit\\\' value=\\\'Add to Cart\\\'>    \\n           </form>\\n        </p>\\n       <p>\\n                          \\n          <div class="modal fade" id="modal-email">\\n          <div class="modal-dialog modal-md">\\n            <div class="modal-content">\\n              <form  method=post action=\\\'index\\\'>\\n                <div class="modal-header ">\\n                  <button type="button" class="close" data-dismiss="modal" aria-label="Close"><span aria-hidden="true">&times;</span></button>\\n                  <h4 class="modal-title" >Apply for job:</h4>\\n                </div>\\n                <div class="modal-body">\\n                  <div class="form-group">\\n                    <input type="text" name=\\\'jobpost_id\\\' value=\\\'\', escape=False)\n    response.write(x[0])\n    response.write(\'\\\' class="form-control "  placeholder="Enter Email">\\n                  </div>\\n                  <div class="form-group">\\n                    <input type="text" name=\\\'post_date\\\' value=\\\'\', escape=False)\n    response.write(request.now)\n    response.write(\'\\\' class="form-control "  placeholder="Enter Email">\\n                  </div>\\n                  <div class="form-group">\\n                    <label>Your IF CAT test id</label>\\n                    <input type="text" name=\\\'ifcat\\\' class="form-control "   placeholder="Enter ID CAT ID" required>\\n                  </div>\\n   \\n                </div>\\n                <div class="modal-footer">\\n                  <button type="button" class="btn btn-default btn-theme" data-dismiss="modal">Close</button>\\n                  <button type="submit" class="btn btn-success btn-theme">Apply</button>\\n                </div>\\n              </form>\\n            </div>\\n          </div>\\n        </div>\\n       </p>\\n        <p>\\n            Posted by: &nbsp; \', escape=False)\n    response.write(userdict[x[15]])\n    response.write(\'\\n        </p>       \\n    </div>\\n</div>\\n<hr/>\\n\', escape=False)\n    pass\nresponse.write(\'\\n\\n\\n                  </div>\\n\\n\\n                  <!-- form get alert -->\\n                  <div class="get_alert">\\n                    <h4>Get email updates for the latest <span class=" ">PHP jobs in United States</span></h4>\\n                    <form>\\n                      <div class="row">\\n                        <div class="col-md-9">\\n                          <div class="form-group">\\n                            <label>My Email</label>\\n                            <input class="form-control" placeholder="Enter Email">\\n                          </div>\\n                        </div>\\n                        <div class="col-md-3">\\n                          <div class="form-group">\\n                            <label class="hidden-sm hidden-xs ">&nbsp;</label>\\n                            <button class="btn btn-theme btn-success btn-block">Activate</button>\\n                          </div>\\n                        </div>\\n                      </div>\\n                      <small>You can cancel email alerts at any time.</small>\\n                    </form>\\n                  </div><!-- end form get alert -->\\n\\n                  <!-- pagination -->\\n                  <nav >\\n                    <ul class="pagination pagination-theme  no-margin">\\n                      <li>\\n                        <a href="#" aria-label="Previous">\\n                          <span aria-hidden="true">&larr;</span>\\n                        </a>\\n                      </li>\\n                      <li class="active"><a href="#">1</a></li>\\n                      <li><a href="#">2</a></li>\\n                      <li><span>...</span></li>\\n                      <li><a href="#">50</a></li>\\n                      <li>\\n                        <a href="#" aria-label="Next">\\n                          <span aria-hidden="true">&rarr;</span>\\n                        </a>\\n                      </li>\\n                    </ul>\\n                  </nav><!-- pagination -->\\n\\n                </div><!-- end box listing -->\\n\\n\\n              </div>\\n              <div class="col-md-3">\\n                <div class="block-section-sm side-right">\\n                  <div class="row">\\n                    <div class="col-xs-6">\\n                      <p><strong>Sort by: </strong></p>\\n                    </div>\\n                    <div class="col-xs-6">\\n                      <p class="text-right">\\n                        <strong>Relevance</strong> - <a href="#" class="link-black"><strong>Date</strong></a>\\n                      </p>\\n                    </div>\\n                  </div>\\n\\n                  <div class="result-filter">\\n                    <h5 class="no-margin-top font-bold margin-b-20 " ><a href="#s_collapse_1" data-toggle="collapse" >Salary Estimate <i class="fa ic-arrow-toogle fa-angle-right pull-right"></i> </a></h5>\\n                    <div class="collapse in" id="s_collapse_1">\\n                      <div class="list-area">\\n                        <ul class="list-unstyled">\\n                          <li>\\n                            <a  href="#" >$50,000+</a> (16947)\\n                          </li>\\n                          <li>\\n                            <a  href="#" >$70,000+</a> (13915)\\n                          </li>\\n                          <li>\\n                            <a  href="#" >$90,000+</a> (9398)\\n                          </li>\\n                          <li>\\n                            <a  href="#" >$110,000+</a> (4112)\\n                          </li>\\n                          <li>\\n                            <a  href="#" >$130,000+</a> (1864)\\n                          </li>\\n                        </ul>\\n                      </div>\\n                    </div>\\n\\n                    <h5 class="font-bold  margin-b-20" ><a href="#s_collapse_5" data-toggle="collapse" >Job Type <i class="fa ic-arrow-toogle fa-angle-right pull-right"></i></a> </h5>\\n                    <div class="collapse in" id=\\\'s_collapse_5\\\'>\\n                      <div class="list-area">\\n                        <ul class="list-unstyled ">\\n                          <li>\\n                            <a  href="#" >Full-time </a> (558)\\n                          </li>\\n                          <li>\\n                            <a  href="#" >Part-time </a> (438)\\n                          </li>\\n                          <li>\\n                            <a  href="#" >Contract </a> (313)\\n                          </li>\\n                          <li>\\n                            <a  href="#" >Internship</a> (169)\\n                          </li>\\n                          <li>\\n                            <a  href="#" >Temporary  </a> (156)\\n                          </li>\\n                        </ul>\\n\\n                      </div>\\n                    </div>\\n\\n\\n                    <h5 class="font-bold  margin-b-20"><a href="#s_collapse_2" data-toggle="collapse" >Title <i class="fa ic-arrow-toogle fa-angle-right pull-right"></i></a>  </h5>\\n                    <div class="collapse in" id="s_collapse_2">\\n                      <div class="list-area">\\n                        <ul class="list-unstyled ">\\n                          <li>\\n                            <a  href="#" >web developer</a> (558)\\n                          </li>\\n                          <li>\\n                            <a  href="#" >PHP Developer</a> (438)\\n                          </li>\\n                          <li>\\n                            <a  href="#" >Software Engineer </a> (313)\\n                          </li>\\n                          <li>\\n                            <a  href="#" >Senior Software Engineer </a> (169)\\n                          </li>\\n                          <li>\\n                            <a  href="#" >Front End Developer </a> (156)\\n                          </li>\\n                          <li>\\n                            <a  href="#" >More ... </a> \\n                          </li>\\n                        </ul>\\n\\n                      </div>\\n                    </div>\\n\\n\\n                    <h5 class="font-bold  margin-b-20"><a href="#s_collapse_3" data-toggle="collapse" >Company <i class="fa ic-arrow-toogle fa-angle-right pull-right"></i></a> </h5>\\n                    <div class="collapse in" id="s_collapse_3">\\n                      <div class="list-area">\\n                        <ul class="list-unstyled ">\\n                          <li>\\n                            <a  href="#" >Unlisted Company</a> (558)\\n                          </li>\\n                          <li>\\n                            <a  href="#" >CyberCoders</a> (438)\\n                          </li>\\n                          <li>\\n                            <a  href="#" >Smith & Keller </a> (313)\\n                          </li>\\n                          <li>\\n                            <a  href="#" >Robert Half Technology </a> (169)\\n                          </li>\\n                          <li>\\n                            <a  href="#" >Jobspring Partners </a> (156)\\n                          </li>\\n                          <li>\\n                            <a  href="#" >More ... </a> \\n                          </li>\\n                        </ul>\\n\\n                      </div>\\n                    </div>\\n\\n\\n                    <h5 class="font-bold  margin-b-20" ><a href="#s_collapse_4" data-toggle="collapse" class="collapsed" >Location  <i class="fa ic-arrow-toogle fa-angle-right pull-right"></i> </a></h5>\\n                    <div class="collapse" id=\\\'s_collapse_4\\\'>\\n                      <div class="list-area">\\n                        <ul class="list-unstyled ">\\n                          <li>\\n                            <a  href="#" >New York, NY </a> (558)\\n                          </li>\\n                          <li>\\n                            <a  href="#" >San Francisco, CA </a> (438)\\n                          </li>\\n                          <li>\\n                            <a  href="#" >Washington, DC </a> (313)\\n                          </li>\\n                          <li>\\n                            <a  href="#" >Chicago, IL</a> (169)\\n                          </li>\\n                          <li>\\n                            <a  href="#" >Austin, TX  </a> (156)\\n                          </li>\\n                          <li>\\n                            <a  href="#" >More ... </a> \\n                          </li>\\n                        </ul>\\n\\n                      </div>\\n                    </div>\\n\\n\\n\\n\\n\\n                  </div>\\n                </div>\\n\\n\\n              </div>\\n            </div>\\n          </div>\\n        </div>\\n\\n\\n\\n        <!-- modal need login -->\\n        <div class="modal fade" id="need-login">\\n          <div class="modal-dialog modal-md">\\n            <div class="modal-content">\\n\\n              <div class="modal-header text-center">\\n                <button type="button" class="close" data-dismiss="modal" aria-label="Close"><span aria-hidden="true">&times;</span></button>\\n                <h4 class="modal-title" >You must login to save jobs</h4>\\n              </div>\\n              <div class="modal-footer text-center">\\n                <a href="http://13.126.24.143/students/default/index" class="btn btn-default btn-theme" >Login</a>\\n                <a href="#" class="btn btn-success btn-theme">Create account (it\\\'s free)</a>\\n              </div>\\n\\n            </div>\\n          </div>\\n        </div><!-- end modal  need login -->\\n\\n\\n        <!-- modal need login -->\\n       <!-- end modal  need login -->        \\n      </div><!--end body-content -->\\n\\n\\n      <!-- main-footer -->\\n      <footer class="main-footer">\\n\\n\\n        <div class="container">\\n          <div class="row">\\n            <div class="col-sm-6">\\n              <ul class="list-inline link-footer text-center-xs">\\n                <li><a href="index.html">Home</a></li>\\n                <li><a href="blog.html">Blog</a></li>\\n                <li><a href="about.html">About Us</a></li>\\n                <li><a href="contact.html">Contact Us</a></li>\\n              </ul>\\n            </div>\\n            <div class="col-sm-6 ">\\n              <p class="text-center-xs hidden-lg hidden-md hidden-sm">Stay Connect</p>\\n              <div class="socials text-right text-center-xs">\\n                <a href="#"><i class="fa fa-facebook"></i></a>\\n                <a href="#"><i class="fa fa-twitter"></i></a>\\n                <a href="#"><i class="fa fa-youtube-play"></i></a>\\n                <a href="#"><i class="fa fa-linkedin"></i></a>\\n              </div>\\n            </div>\\n          </div>\\n        </div>\\n      </footer><!-- end main-footer -->\\n\\n    </div><!-- end wrapper page -->\\n\\n\\n\\n\\n    <!-- jQuery (necessary for Bootstrap\\\'s JavaScript plugins) -->\\n    <script src="\', escape=False)\nresponse.write(URL(\'static\',\'js/j/jquery.js\'))\nresponse.write(\'"></script>\\n    <script src="\', escape=False)\nresponse.write(URL(\'static\',\'js/j/jquery.easing_1.3.pack.js\'))\nresponse.write(\'"></script>\\n\\n    <!-- jQuery Bootstrap -->\\n    <script src="\', escape=False)\nresponse.write(URL(\'static\',\'js/j/bootstrap.min.js\'))\nresponse.write(\'"></script>\\n\\n    <!-- Lightbox -->\\n    <script src="\', escape=False)\nresponse.write(URL(\'static\',\'js/j/jquery.magnific_popup.min.js\'))\nresponse.write(\'"></script>\\n\\n    <!-- Theme JS -->\\n      <script src="\', escape=False)\nresponse.write(URL(\'static\',\'js/j/theme.js\'))\nresponse.write(\'"></script>\\n\\n\\n    <!-- maps -->\\n    <script src="http://maps.googleapis.com/maps/api/js?sensor=false" type="text/javascript"></script>\\n        <script src="\', escape=False)\nresponse.write(URL(\'static\',\'js/j/gmap3.min.js\'))\nresponse.write(\'"  type="text/javascript"></script>\\n \\n    <!-- maps single marker -->\\n    <script src="\', escape=False)\nresponse.write(URL(\'static\',\'js/j/map_detail.js\'))\nresponse.write(\'"></script>\\n\\n  </body>\\n</html>\\n\', escape=False)'
p7
sS'snapshot'
p8
(dp9
S'exception'
p10
(dp11
S'__getslice__'
p12
S"<method-wrapper '__getslice__' of exceptions.AttributeError object>"
p13
sS'__str__'
p14
S"<method-wrapper '__str__' of exceptions.AttributeError object>"
p15
sS'__reduce__'
p16
S'<built-in method __reduce__ of exceptions.AttributeError object>'
p17
sS'__dict__'
p18
S'{}'
p19
sS'message'
p20
S'"\'tuple\' object has no attribute \'id\'"'
p21
sS'__sizeof__'
p22
S'<built-in method __sizeof__ of exceptions.AttributeError object>'
p23
sS'__init__'
p24
S"<method-wrapper '__init__' of exceptions.AttributeError object>"
p25
sS'__setattr__'
p26
S"<method-wrapper '__setattr__' of exceptions.AttributeError object>"
p27
sS'__reduce_ex__'
p28
S'<built-in method __reduce_ex__ of exceptions.AttributeError object>'
p29
sS'__new__'
p30
S'<built-in method __new__ of type object>'
p31
sS'__format__'
p32
S'<built-in method __format__ of exceptions.AttributeError object>'
p33
sS'__class__'
p34
S"<type 'exceptions.AttributeError'>"
p35
sS'__doc__'
p36
S"'Attribute not found.'"
p37
sS'__getitem__'
p38
S"<method-wrapper '__getitem__' of exceptions.AttributeError object>"
p39
sS'__setstate__'
p40
S'<built-in method __setstate__ of exceptions.AttributeError object>'
p41
sS'__getattribute__'
p42
S"<method-wrapper '__getattribute__' of exceptions.AttributeError object>"
p43
sS'args'
p44
S'("\'tuple\' object has no attribute \'id\'",)'
p45
sS'__subclasshook__'
p46
S'<built-in method __subclasshook__ of type object>'
p47
sS'__unicode__'
p48
S'<built-in method __unicode__ of exceptions.AttributeError object>'
p49
sS'__delattr__'
p50
S"<method-wrapper '__delattr__' of exceptions.AttributeError object>"
p51
sS'__repr__'
p52
S"<method-wrapper '__repr__' of exceptions.AttributeError object>"
p53
sS'__hash__'
p54
S"<method-wrapper '__hash__' of exceptions.AttributeError object>"
p55
ssS'evalue'
p56
S"'tuple' object has no attribute 'id'"
p57
sS'request'
p58
cgluon.html
XML_unpickle
p59
(S's\xf9\x84\x00\x00<div><table><tr><td style="font-weight:bold;vertical-align:top;">ajax</td><td style="vertical-align:top;">:</td><td><div>False</div></td></tr><tr><td style="font-weight:bold;vertical-align:top;">application</td><td style="vertical-align:top;">:</td><td><div>test</div></td></tr><tr><td style="font-weight:bold;vertical-align:top;">args</td><td style="vertical-align:top;">:</td><td><div><table></table></div></td></tr><tr><td style="font-weight:bold;vertical-align:top;">cid</td><td style="vertical-align:top;">:</td><td><div>None</div></td></tr><tr><td style="font-weight:bold;vertical-align:top;">client</td><td style="vertical-align:top;">:</td><td><div>127.0.0.1</div></td></tr><tr><td style="font-weight:bold;vertical-align:top;">controller</td><td style="vertical-align:top;">:</td><td><div>default</div></td></tr><tr><td style="font-weight:bold;vertical-align:top;">cookies</td><td style="vertical-align:top;">:</td><td><div><table><tr><td style="font-weight:bold;vertical-align:top;">session_id_admin</td><td style="vertical-align:top;">:</td><td><div>127.0.0.1-d95b675c-2efe-4b1d-83c0-bb0f9327f453<table><tr><td style="font-weight:bold;vertical-align:top;">comment</td><td style="vertical-align:top;">:</td><td><div></div></td></tr><tr><td style="font-weight:bold;vertical-align:top;">domain</td><td style="vertical-align:top;">:</td><td><div></div></td></tr><tr><td style="font-weight:bold;vertical-align:top;">expires</td><td style="vertical-align:top;">:</td><td><div></div></td></tr><tr><td style="font-weight:bold;vertical-align:top;">httponly</td><td style="vertical-align:top;">:</td><td><div></div></td></tr><tr><td style="font-weight:bold;vertical-align:top;">max-age</td><td style="vertical-align:top;">:</td><td><div></div></td></tr><tr><td style="font-weight:bold;vertical-align:top;">path</td><td style="vertical-align:top;">:</td><td><div></div></td></tr><tr><td style="font-weight:bold;vertical-align:top;">secure</td><td style="vertical-align:top;">:</td><td><div></div></td></tr><tr><td style="font-weight:bold;vertical-align:top;">version</td><td style="vertical-align:top;">:</td><td><div></div></td></tr></table></div></td></tr><tr><td style="font-weight:bold;vertical-align:top;">session_id_corporates</td><td style="vertical-align:top;">:</td><td><div>127.0.0.1-fb4af6f8-0cb2-4685-ab77-d316bc647781<table><tr><td style="font-weight:bold;vertical-align:top;">comment</td><td style="vertical-align:top;">:</td><td><div></div></td></tr><tr><td style="font-weight:bold;vertical-align:top;">domain</td><td style="vertical-align:top;">:</td><td><div></div></td></tr><tr><td style="font-weight:bold;vertical-align:top;">expires</td><td style="vertical-align:top;">:</td><td><div></div></td></tr><tr><td style="font-weight:bold;vertical-align:top;">httponly</td><td style="vertical-align:top;">:</td><td><div></div></td></tr><tr><td style="font-weight:bold;vertical-align:top;">max-age</td><td style="vertical-align:top;">:</td><td><div></div></td></tr><tr><td style="font-weight:bold;vertical-align:top;">path</td><td style="vertical-align:top;">:</td><td><div></div></td></tr><tr><td style="font-weight:bold;vertical-align:top;">secure</td><td style="vertical-align:top;">:</td><td><div></div></td></tr><tr><td style="font-weight:bold;vertical-align:top;">version</td><td style="vertical-align:top;">:</td><td><div></div></td></tr></table></div></td></tr><tr><td style="font-weight:bold;vertical-align:top;">session_id_datatest</td><td style="vertical-align:top;">:</td><td><div>127.0.0.1-4a4a0e09-a0c9-46f9-9750-9bdb79d9e8e5<table><tr><td style="font-weight:bold;vertical-align:top;">comment</td><td style="vertical-align:top;">:</td><td><div></div></td></tr><tr><td style="font-weight:bold;vertical-align:top;">domain</td><td style="vertical-align:top;">:</td><td><div></div></td></tr><tr><td style="font-weight:bold;vertical-align:top;">expires</td><td style="vertical-align:top;">:</td><td><div></div></td></tr><tr><td style="font-weight:bold;vertical-align:top;">httponly</td><td style="vertical-align:top;">:</td><td><div></div></td></tr><tr><td style="font-weight:bold;vertical-align:top;">max-age</td><td style="vertical-align:top;">:</td><td><div></div></td></tr><tr><td style="font-weight:bold;vertical-align:top;">path</td><td style="vertical-align:top;">:</td><td><div></div></td></tr><tr><td style="font-weight:bold;vertical-align:top;">secure</td><td style="vertical-align:top;">:</td><td><div></div></td></tr><tr><td style="font-weight:bold;vertical-align:top;">version</td><td style="vertical-align:top;">:</td><td><div></div></td></tr></table></div></td></tr><tr><td style="font-weight:bold;vertical-align:top;">session_id_interviewfight</td><td style="vertical-align:top;">:</td><td><div>127.0.0.1-f9d44aaf-1d44-42ec-9496-077c52fe41f2<table><tr><td style="font-weight:bold;vertical-align:top;">comment</td><td style="vertical-align:top;">:</td><td><div></div></td></tr><tr><td style="font-weight:bold;vertical-align:top;">domain</td><td style="vertical-align:top;">:</td><td><div></div></td></tr><tr><td style="font-weight:bold;vertical-align:top;">expires</td><td style="vertical-align:top;">:</td><td><div></div></td></tr><tr><td style="font-weight:bold;vertical-align:top;">httponly</td><td style="vertical-align:top;">:</td><td><div></div></td></tr><tr><td style="font-weight:bold;vertical-align:top;">max-age</td><td style="vertical-align:top;">:</td><td><div></div></td></tr><tr><td style="font-weight:bold;vertical-align:top;">path</td><td style="vertical-align:top;">:</td><td><div></div></td></tr><tr><td style="font-weight:bold;vertical-align:top;">secure</td><td style="vertical-align:top;">:</td><td><div></div></td></tr><tr><td style="font-weight:bold;vertical-align:top;">version</td><td style="vertical-align:top;">:</td><td><div></div></td></tr></table></div></td></tr><tr><td style="font-weight:bold;vertical-align:top;">session_id_jobs</td><td style="vertical-align:top;">:</td><td><div>127.0.0.1-e06fdbc8-711e-4108-9e26-f5315ca99236<table><tr><td style="font-weight:bold;vertical-align:top;">comment</td><td style="vertical-align:top;">:</td><td><div></div></td></tr><tr><td style="font-weight:bold;vertical-align:top;">domain</td><td style="vertical-align:top;">:</td><td><div></div></td></tr><tr><td style="font-weight:bold;vertical-align:top;">expires</td><td style="vertical-align:top;">:</td><td><div></div></td></tr><tr><td style="font-weight:bold;vertical-align:top;">httponly</td><td style="vertical-align:top;">:</td><td><div></div></td></tr><tr><td style="font-weight:bold;vertical-align:top;">max-age</td><td style="vertical-align:top;">:</td><td><div></div></td></tr><tr><td style="font-weight:bold;vertical-align:top;">path</td><td style="vertical-align:top;">:</td><td><div></div></td></tr><tr><td style="font-weight:bold;vertical-align:top;">secure</td><td style="vertical-align:top;">:</td><td><div></div></td></tr><tr><td style="font-weight:bold;vertical-align:top;">version</td><td style="vertical-align:top;">:</td><td><div></div></td></tr></table></div></td></tr><tr><td style="font-weight:bold;vertical-align:top;">session_id_mytest</td><td style="vertical-align:top;">:</td><td><div>127.0.0.1-bc9f3cd1-023c-45ac-bbff-cbaae39083f5<table><tr><td style="font-weight:bold;vertical-align:top;">comment</td><td style="vertical-align:top;">:</td><td><div></div></td></tr><tr><td style="font-weight:bold;vertical-align:top;">domain</td><td style="vertical-align:top;">:</td><td><div></div></td></tr><tr><td style="font-weight:bold;vertical-align:top;">expires</td><td style="vertical-align:top;">:</td><td><div></div></td></tr><tr><td style="font-weight:bold;vertical-align:top;">httponly</td><td style="vertical-align:top;">:</td><td><div></div></td></tr><tr><td style="font-weight:bold;vertical-align:top;">max-age</td><td style="vertical-align:top;">:</td><td><div></div></td></tr><tr><td style="font-weight:bold;vertical-align:top;">path</td><td style="vertical-align:top;">:</td><td><div></div></td></tr><tr><td style="font-weight:bold;vertical-align:top;">secure</td><td style="vertical-align:top;">:</td><td><div></div></td></tr><tr><td style="font-weight:bold;vertical-align:top;">version</td><td style="vertical-align:top;">:</td><td><div></div></td></tr></table></div></td></tr><tr><td style="font-weight:bold;vertical-align:top;">session_id_students</td><td style="vertical-align:top;">:</td><td><div>127.0.0.1-d26b8466-3a22-4e7e-8496-1946b42220ef<table><tr><td style="font-weight:bold;vertical-align:top;">comment</td><td style="vertical-align:top;">:</td><td><div></div></td></tr><tr><td style="font-weight:bold;vertical-align:top;">domain</td><td style="vertical-align:top;">:</td><td><div></div></td></tr><tr><td style="font-weight:bold;vertical-align:top;">expires</td><td style="vertical-align:top;">:</td><td><div></div></td></tr><tr><td style="font-weight:bold;vertical-align:top;">httponly</td><td style="vertical-align:top;">:</td><td><div></div></td></tr><tr><td style="font-weight:bold;vertical-align:top;">max-age</td><td style="vertical-align:top;">:</td><td><div></div></td></tr><tr><td style="font-weight:bold;vertical-align:top;">path</td><td style="vertical-align:top;">:</td><td><div></div></td></tr><tr><td style="font-weight:bold;vertical-align:top;">secure</td><td style="vertical-align:top;">:</td><td><div></div></td></tr><tr><td style="font-weight:bold;vertical-align:top;">version</td><td style="vertical-align:top;">:</td><td><div></div></td></tr></table></div></td></tr><tr><td style="font-weight:bold;vertical-align:top;">session_id_test</td><td style="vertical-align:top;">:</td><td><div>127.0.0.1-767fd09c-a027-4722-b18c-f551096f5dd4<table><tr><td style="font-weight:bold;vertical-align:top;">comment</td><td style="vertical-align:top;">:</td><td><div></div></td></tr><tr><td style="font-weight:bold;vertical-align:top;">domain</td><td style="vertical-align:top;">:</td><td><div></div></td></tr><tr><td style="font-weight:bold;vertical-align:top;">expires</td><td style="vertical-align:top;">:</td><td><div></div></td></tr><tr><td style="font-weight:bold;vertical-align:top;">httponly</td><td style="vertical-align:top;">:</td><td><div></div></td></tr><tr><td style="font-weight:bold;vertical-align:top;">max-age</td><td style="vertical-align:top;">:</td><td><div></div></td></tr><tr><td style="font-weight:bold;vertical-align:top;">path</td><td style="vertical-align:top;">:</td><td><div></div></td></tr><tr><td style="font-weight:bold;vertical-align:top;">secure</td><td style="vertical-align:top;">:</td><td><div></div></td></tr><tr><td style="font-weight:bold;vertical-align:top;">version</td><td style="vertical-align:top;">:</td><td><div></div></td></tr></table></div></td></tr><tr><td style="font-weight:bold;vertical-align:top;">session_id_university</td><td style="vertical-align:top;">:</td><td><div>127.0.0.1-97f9dab7-30d5-49de-bfec-567d9240480a<table><tr><td style="font-weight:bold;vertical-align:top;">comment</td><td style="vertical-align:top;">:</td><td><div></div></td></tr><tr><td style="font-weight:bold;vertical-align:top;">domain</td><td style="vertical-align:top;">:</td><td><div></div></td></tr><tr><td style="font-weight:bold;vertical-align:top;">expires</td><td style="vertical-align:top;">:</td><td><div></div></td></tr><tr><td style="font-weight:bold;vertical-align:top;">httponly</td><td style="vertical-align:top;">:</td><td><div></div></td></tr><tr><td style="font-weight:bold;vertical-align:top;">max-age</td><td style="vertical-align:top;">:</td><td><div></div></td></tr><tr><td style="font-weight:bold;vertical-align:top;">path</td><td style="vertical-align:top;">:</td><td><div></div></td></tr><tr><td style="font-weight:bold;vertical-align:top;">secure</td><td style="vertical-align:top;">:</td><td><div></div></td></tr><tr><td style="font-weight:bold;vertical-align:top;">version</td><td style="vertical-align:top;">:</td><td><div></div></td></tr></table></div></td></tr><tr><td style="font-weight:bold;vertical-align:top;">session_id_welcome</td><td style="vertical-align:top;">:</td><td><div>127.0.0.1-a384489c-462c-460e-bc8d-df6700f1df4f<table><tr><td style="font-weight:bold;vertical-align:top;">comment</td><td style="vertical-align:top;">:</td><td><div></div></td></tr><tr><td style="font-weight:bold;vertical-align:top;">domain</td><td style="vertical-align:top;">:</td><td><div></div></td></tr><tr><td style="font-weight:bold;vertical-align:top;">expires</td><td style="vertical-align:top;">:</td><td><div></div></td></tr><tr><td style="font-weight:bold;vertical-align:top;">httponly</td><td style="vertical-align:top;">:</td><td><div></div></td></tr><tr><td style="font-weight:bold;vertical-align:top;">max-age</td><td style="vertical-align:top;">:</td><td><div></div></td></tr><tr><td style="font-weight:bold;vertical-align:top;">path</td><td style="vertical-align:top;">:</td><td><div></div></td></tr><tr><td style="font-weight:bold;vertical-align:top;">secure</td><td style="vertical-align:top;">:</td><td><div></div></td></tr><tr><td style="font-weight:bold;vertical-align:top;">version</td><td style="vertical-align:top;">:</td><td><div></div></td></tr></table></div></td></tr></table></div></td></tr><tr><td style="font-weight:bold;vertical-align:top;">env</td><td style="vertical-align:top;">:</td><td><div><table><tr><td style="font-weight:bold;vertical-align:top;">HTTP_ACCEPT</td><td style="vertical-align:top;">:</td><td><div>text/html,application/xhtml+xml,application/xml;q=0.9,image/webp,image/apng,*/*;q=0.8</div></td></tr><tr><td style="font-weight:bold;vertical-align:top;">HTTP_ACCEPT_ENCODING</td><td style="vertical-align:top;">:</td><td><div>gzip, deflate, br</div></td></tr><tr><td style="font-weight:bold;vertical-align:top;">HTTP_ACCEPT_LANGUAGE</td><td style="vertical-align:top;">:</td><td><div>en-US,en;q=0.9</div></td></tr><tr><td style="font-weight:bold;vertical-align:top;">HTTP_CACHE_CONTROL</td><td style="vertical-align:top;">:</td><td><div>max-age=0</div></td></tr><tr><td style="font-weight:bold;vertical-align:top;">HTTP_CONNECTION</td><td style="vertical-align:top;">:</td><td><div>keep-alive</div></td></tr><tr><td style="font-weight:bold;vertical-align:top;">HTTP_COOKIE</td><td style="vertical-align:top;">:</td><td><div>session_id_admin=127.0.0.1-d95b675c-2efe-4b1d-83c0-bb0f9327f453; session_id_mytest=127.0.0.1-bc9f3cd1-023c-45ac-bbff-cbaae39083f5; session_id_university=127.0.0.1-97f9dab7-30d5-49de-bfec-567d9240480a; session_id_interviewfight=127.0.0.1-f9d44aaf-1d44-42ec-9496-077c52fe41f2; session_id_jobs=127.0.0.1-e06fdbc8-711e-4108-9e26-f5315ca99236; session_id_students=127.0.0.1-d26b8466-3a22-4e7e-8496-1946b42220ef; session_id_corporates=127.0.0.1-fb4af6f8-0cb2-4685-ab77-d316bc647781; session_id_welcome=127.0.0.1-a384489c-462c-460e-bc8d-df6700f1df4f; session_id_datatest=127.0.0.1-4a4a0e09-a0c9-46f9-9750-9bdb79d9e8e5; session_id_test=127.0.0.1-767fd09c-a027-4722-b18c-f551096f5dd4</div></td></tr><tr><td style="font-weight:bold;vertical-align:top;">HTTP_HOST</td><td style="vertical-align:top;">:</td><td><div>127.0.0.1</div></td></tr><tr><td style="font-weight:bold;vertical-align:top;">HTTP_REFERER</td><td style="vertical-align:top;">:</td><td><div>http://127.0.0.1/admin/default/edit/test/controllers/default.py?id=controllers__default__py</div></td></tr><tr><td style="font-weight:bold;vertical-align:top;">HTTP_UPGRADE_INSECURE_REQUESTS</td><td style="vertical-align:top;">:</td><td><div>1</div></td></tr><tr><td style="font-weight:bold;vertical-align:top;">HTTP_USER_AGENT</td><td style="vertical-align:top;">:</td><td><div>Mozilla/5.0 (Windows NT 6.3; Win64; x64) AppleWebKit/537.36 (KHTML, like Gecko) Chrome/63.0.3239.84 Safari/537.36</div></td></tr><tr><td style="font-weight:bold;vertical-align:top;">PATH_INFO</td><td style="vertical-align:top;">:</td><td><div>/test/default/index</div></td></tr><tr><td style="font-weight:bold;vertical-align:top;">QUERY_STRING</td><td style="vertical-align:top;">:</td><td><div></div></td></tr><tr><td style="font-weight:bold;vertical-align:top;">REMOTE_ADDR</td><td style="vertical-align:top;">:</td><td><div>127.0.0.1</div></td></tr><tr><td style="font-weight:bold;vertical-align:top;">REMOTE_PORT</td><td style="vertical-align:top;">:</td><td><div>60958</div></td></tr><tr><td style="font-weight:bold;vertical-align:top;">REQUEST_METHOD</td><td style="vertical-align:top;">:</td><td><div>GET</div></td></tr><tr><td style="font-weight:bold;vertical-align:top;">SCRIPT_NAME</td><td style="vertical-align:top;">:</td><td><div></div></td></tr><tr><td style="font-weight:bold;vertical-align:top;">SERVER_NAME</td><td style="vertical-align:top;">:</td><td><div>WIN-9N3BQFPPR1C</div></td></tr><tr><td style="font-weight:bold;vertical-align:top;">SERVER_PORT</td><td style="vertical-align:top;">:</td><td><div>80</div></td></tr><tr><td style="font-weight:bold;vertical-align:top;">SERVER_PROTOCOL</td><td style="vertical-align:top;">:</td><td><div>HTTP/1.1</div></td></tr><tr><td style="font-weight:bold;vertical-align:top;">SERVER_SOFTWARE</td><td style="vertical-align:top;">:</td><td><div>Rocket 1.2.6</div></td></tr><tr><td style="font-weight:bold;vertical-align:top;">app_folders</td><td style="vertical-align:top;">:</td><td><div>set([&#x27;C:\\\\web2py\\\\applications\\\\test\\\\&#x27;, &#x27;C:\\\\web2py\\\\applications\\\\corporates\\\\&#x27;, &#x27;C:\\\\web2py\\\\applications\\\\admin\\\\&#x27;, &#x27;C:\\\\web2py\\\\applications\\\\welcome\\\\&#x27;, &#x27;C:\\\\web2py\\\\applications\\\\datatest\\\\&#x27;, &#x27;C:\\\\web2py\\\\applications\\\\mytest\\\\&#x27;, &#x27;C:\\\\web2py\\\\applications\\\\jobs\\\\&#x27;])</div></td></tr><tr><td style="font-weight:bold;vertical-align:top;">applications_parent</td><td style="vertical-align:top;">:</td><td><div>C:\\web2py</div></td></tr><tr><td style="font-weight:bold;vertical-align:top;">cmd_args</td><td style="vertical-align:top;">:</td><td><div><table></table></div></td></tr><tr><td style="font-weight:bold;vertical-align:top;">cmd_options</td><td style="vertical-align:top;">:</td><td><div>&lt;Values at 0x3e18808: {&#x27;verbose&#x27;: False, &#x27;ip&#x27;: &#x27;127.0.0.1&#x27;, &#x27;debuglevel&#x27;: 30, &#x27;with_scheduler&#x27;: False, &#x27;shutdown_timeout&#x27;: 5, &#x27;taskbar&#x27;: False, &#x27;with_coverage&#x27;: False, &#x27;pid_filename&#x27;: &#x27;httpserver.pid&#x27;, &#x27;maxthreads&#x27;: None, &#x27;softcron&#x27;: False, &#x27;server_name&#x27;: &#x27;WIN-9N3BQFPPR1C&#x27;, &#x27;bpython&#x27;: False, &#x27;nogui&#x27;: False, &#x27;port&#x27;: 8000, &#x27;print_errors&#x27;: False, &#x27;extcron&#x27;: False, &#x27;runcron&#x27;: False, &#x27;run_system_tests&#x27;: False, &#x27;test&#x27;: None, &#x27;folder&#x27;: &#x27;C:\\\\web2py&#x27;, &#x27;config&#x27;: &#x27;&#x27;, &#x27;minthreads&#x27;: None, &#x27;shell&#x27;: None, &#x27;run&#x27;: &#x27;&#x27;, &#x27;log_filename&#x27;: &#x27;httpserver.log&#x27;, &#x27;profiler_dir&#x27;: None, &#x27;args&#x27;: [&#x27;&#x27;], &#x27;socket_timeout&#x27;: 5, &#x27;ssl_ca_certificate&#x27;: None, &#x27;scheduler&#x27;: None, &#x27;interfaces&#x27;: None, &#x27;ssl_private_key&#x27;: &#x27;&#x27;, &#x27;gae&#x27;: None, &#x27;password&#x27;: &#x27;******&#x27;, &#x27;request_queue_size&#x27;: 5, &#x27;ssl_certificate&#x27;: &#x27;&#x27;, &#x27;cronjob&#x27;: False, &#x27;numthreads&#x27;: None, &#x27;quiet&#x27;: False, &#x27;import_models&#x27;: False, &#x27;timeout&#x27;: 10, &#x27;plain&#x27;: False, &#x27;nobanner&#x27;: False}&gt;</div></td></tr><tr><td style="font-weight:bold;vertical-align:top;">db_sessions</td><td style="vertical-align:top;">:</td><td><div>set([])</div></td></tr><tr><td style="font-weight:bold;vertical-align:top;">debugging</td><td style="vertical-align:top;">:</td><td><div>True</div></td></tr><tr><td style="font-weight:bold;vertical-align:top;">gluon_parent</td><td style="vertical-align:top;">:</td><td><div>C:\\web2py</div></td></tr><tr><td style="font-weight:bold;vertical-align:top;">http_accept</td><td style="vertical-align:top;">:</td><td><div>text/html,application/xhtml+xml,application/xml;q=0.9,image/webp,image/apng,*/*;q=0.8</div></td></tr><tr><td style="font-weight:bold;vertical-align:top;">http_accept_encoding</td><td style="vertical-align:top;">:</td><td><div>gzip, deflate, br</div></td></tr><tr><td style="font-weight:bold;vertical-align:top;">http_accept_language</td><td style="vertical-align:top;">:</td><td><div>en-US,en;q=0.9</div></td></tr><tr><td style="font-weight:bold;vertical-align:top;">http_cache_control</td><td style="vertical-align:top;">:</td><td><div>max-age=0</div></td></tr><tr><td style="font-weight:bold;vertical-align:top;">http_connection</td><td style="vertical-align:top;">:</td><td><div>keep-alive</div></td></tr><tr><td style="font-weight:bold;vertical-align:top;">http_cookie</td><td style="vertical-align:top;">:</td><td><div>session_id_admin=127.0.0.1-d95b675c-2efe-4b1d-83c0-bb0f9327f453; session_id_mytest=127.0.0.1-bc9f3cd1-023c-45ac-bbff-cbaae39083f5; session_id_university=127.0.0.1-97f9dab7-30d5-49de-bfec-567d9240480a; session_id_interviewfight=127.0.0.1-f9d44aaf-1d44-42ec-9496-077c52fe41f2; session_id_jobs=127.0.0.1-e06fdbc8-711e-4108-9e26-f5315ca99236; session_id_students=127.0.0.1-d26b8466-3a22-4e7e-8496-1946b42220ef; session_id_corporates=127.0.0.1-fb4af6f8-0cb2-4685-ab77-d316bc647781; session_id_welcome=127.0.0.1-a384489c-462c-460e-bc8d-df6700f1df4f; session_id_datatest=127.0.0.1-4a4a0e09-a0c9-46f9-9750-9bdb79d9e8e5; session_id_test=127.0.0.1-767fd09c-a027-4722-b18c-f551096f5dd4</div></td></tr><tr><td style="font-weight:bold;vertical-align:top;">http_host</td><td style="vertical-align:top;">:</td><td><div>127.0.0.1</div></td></tr><tr><td style="font-weight:bold;vertical-align:top;">http_referer</td><td style="vertical-align:top;">:</td><td><div>http://127.0.0.1/admin/default/edit/test/controllers/default.py?id=controllers__default__py</div></td></tr><tr><td style="font-weight:bold;vertical-align:top;">http_upgrade_insecure_requests</td><td style="vertical-align:top;">:</td><td><div>1</div></td></tr><tr><td style="font-weight:bold;vertical-align:top;">http_user_agent</td><td style="vertical-align:top;">:</td><td><div>Mozilla/5.0 (Windows NT 6.3; Win64; x64) AppleWebKit/537.36 (KHTML, like Gecko) Chrome/63.0.3239.84 Safari/537.36</div></td></tr><tr><td style="font-weight:bold;vertical-align:top;">is_jython</td><td style="vertical-align:top;">:</td><td><div>False</div></td></tr><tr><td style="font-weight:bold;vertical-align:top;">is_py2</td><td style="vertical-align:top;">:</td><td><div>True</div></td></tr><tr><td style="font-weight:bold;vertical-align:top;">is_pypy</td><td style="vertical-align:top;">:</td><td><div>False</div></td></tr><tr><td style="font-weight:bold;vertical-align:top;">is_source</td><td style="vertical-align:top;">:</td><td><div>True</div></td></tr><tr><td style="font-weight:bold;vertical-align:top;">local_hosts</td><td style="vertical-align:top;">:</td><td><div><table><tr><td><div>fe80::a0d3:8d7d:3c66:3f6f%12</div></td></tr><tr><td><div>::ffff:127.0.0.1</div></td></tr><tr><td><div>::1</div></td></tr><tr><td><div>WIN-9N3BQFPPR1C</div></td></tr><tr><td><div>WIN-9N3BQFPPR1C.ap-south-1.compute.internal</div></td></tr><tr><td><div>172.31.12.204</div></td></tr><tr><td><div>127.0.0.1</div></td></tr></table></div></td></tr><tr><td style="font-weight:bold;vertical-align:top;">path_info</td><td style="vertical-align:top;">:</td><td><div>/test/default/index</div></td></tr><tr><td style="font-weight:bold;vertical-align:top;">query_string</td><td style="vertical-align:top;">:</td><td><div></div></td></tr><tr><td style="font-weight:bold;vertical-align:top;">remote_addr</td><td style="vertical-align:top;">:</td><td><div>127.0.0.1</div></td></tr><tr><td style="font-weight:bold;vertical-align:top;">remote_port</td><td style="vertical-align:top;">:</td><td><div>60958</div></td></tr><tr><td style="font-weight:bold;vertical-align:top;">request_method</td><td style="vertical-align:top;">:</td><td><div>GET</div></td></tr><tr><td style="font-weight:bold;vertical-align:top;">request_uri</td><td style="vertical-align:top;">:</td><td><div>/test/default/index</div></td></tr><tr><td style="font-weight:bold;vertical-align:top;">script_name</td><td style="vertical-align:top;">:</td><td><div></div></td></tr><tr><td style="font-weight:bold;vertical-align:top;">server_name</td><td style="vertical-align:top;">:</td><td><div>WIN-9N3BQFPPR1C</div></td></tr><tr><td style="font-weight:bold;vertical-align:top;">server_port</td><td style="vertical-align:top;">:</td><td><div>80</div></td></tr><tr><td style="font-weight:bold;vertical-align:top;">server_protocol</td><td style="vertical-align:top;">:</td><td><div>HTTP/1.1</div></td></tr><tr><td style="font-weight:bold;vertical-align:top;">server_software</td><td style="vertical-align:top;">:</td><td><div>Rocket 1.2.6</div></td></tr><tr><td style="font-weight:bold;vertical-align:top;">web2py_path</td><td style="vertical-align:top;">:</td><td><div>C:\\web2py</div></td></tr><tr><td style="font-weight:bold;vertical-align:top;">web2py_version</td><td style="vertical-align:top;">:</td><td><div>2.16.1-stable+timestamp.2017.11.14.05.54.25</div></td></tr><tr><td style="font-weight:bold;vertical-align:top;">wsgi.errors</td><td style="vertical-align:top;">:</td><td><div>&lt;open file &#x27;&lt;stderr&gt;&#x27;, mode &#x27;w&#x27; at 0x00000000029BB150&gt;</div></td></tr><tr><td style="font-weight:bold;vertical-align:top;">wsgi.file_wrapper</td><td style="vertical-align:top;">:</td><td><div>&lt;class wsgiref.util.FileWrapper at 0x0000000003DBB588&gt;</div></td></tr><tr><td style="font-weight:bold;vertical-align:top;">wsgi.input</td><td style="vertical-align:top;">:</td><td><div>&lt;socket._fileobject object at 0x000000000AD805E8&gt;</div></td></tr><tr><td style="font-weight:bold;vertical-align:top;">wsgi.multiprocess</td><td style="vertical-align:top;">:</td><td><div>False</div></td></tr><tr><td style="font-weight:bold;vertical-align:top;">wsgi.multithread</td><td style="vertical-align:top;">:</td><td><div>True</div></td></tr><tr><td style="font-weight:bold;vertical-align:top;">wsgi.run_once</td><td style="vertical-align:top;">:</td><td><div>False</div></td></tr><tr><td style="font-weight:bold;vertical-align:top;">wsgi.url_scheme</td><td style="vertical-align:top;">:</td><td><div>http</div></td></tr><tr><td style="font-weight:bold;vertical-align:top;">wsgi.version</td><td style="vertical-align:top;">:</td><td><div><table><tr><td><div>1</div></td></tr><tr><td><div>0</div></td></tr></table></div></td></tr><tr><td style="font-weight:bold;vertical-align:top;">wsgi_errors</td><td style="vertical-align:top;">:</td><td><div>&lt;open file &#x27;&lt;stderr&gt;&#x27;, mode &#x27;w&#x27; at 0x00000000029BB150&gt;</div></td></tr><tr><td style="font-weight:bold;vertical-align:top;">wsgi_file_wrapper</td><td style="vertical-align:top;">:</td><td><div>&lt;class wsgiref.util.FileWrapper at 0x0000000003DBB588&gt;</div></td></tr><tr><td style="font-weight:bold;vertical-align:top;">wsgi_input</td><td style="vertical-align:top;">:</td><td><div>&lt;socket._fileobject object at 0x000000000AD805E8&gt;</div></td></tr><tr><td style="font-weight:bold;vertical-align:top;">wsgi_multiprocess</td><td style="vertical-align:top;">:</td><td><div>False</div></td></tr><tr><td style="font-weight:bold;vertical-align:top;">wsgi_multithread</td><td style="vertical-align:top;">:</td><td><div>True</div></td></tr><tr><td style="font-weight:bold;vertical-align:top;">wsgi_run_once</td><td style="vertical-align:top;">:</td><td><div>False</div></td></tr><tr><td style="font-weight:bold;vertical-align:top;">wsgi_url_scheme</td><td style="vertical-align:top;">:</td><td><div>http</div></td></tr><tr><td style="font-weight:bold;vertical-align:top;">wsgi_version</td><td style="vertical-align:top;">:</td><td><div><table><tr><td><div>1</div></td></tr><tr><td><div>0</div></td></tr></table></div></td></tr></table></div></td></tr><tr><td style="font-weight:bold;vertical-align:top;">extension</td><td style="vertical-align:top;">:</td><td><div>html</div></td></tr><tr><td style="font-weight:bold;vertical-align:top;">folder</td><td style="vertical-align:top;">:</td><td><div>C:\\web2py\\applications\\test\\</div></td></tr><tr><td style="font-weight:bold;vertical-align:top;">function</td><td style="vertical-align:top;">:</td><td><div>index</div></td></tr><tr><td style="font-weight:bold;vertical-align:top;">global_settings</td><td style="vertical-align:top;">:</td><td><div><table><tr><td style="font-weight:bold;vertical-align:top;">app_folders</td><td style="vertical-align:top;">:</td><td><div>set([&#x27;C:\\\\web2py\\\\applications\\\\test\\\\&#x27;, &#x27;C:\\\\web2py\\\\applications\\\\corporates\\\\&#x27;, &#x27;C:\\\\web2py\\\\applications\\\\admin\\\\&#x27;, &#x27;C:\\\\web2py\\\\applications\\\\welcome\\\\&#x27;, &#x27;C:\\\\web2py\\\\applications\\\\datatest\\\\&#x27;, &#x27;C:\\\\web2py\\\\applications\\\\mytest\\\\&#x27;, &#x27;C:\\\\web2py\\\\applications\\\\jobs\\\\&#x27;])</div></td></tr><tr><td style="font-weight:bold;vertical-align:top;">applications_parent</td><td style="vertical-align:top;">:</td><td><div>C:\\web2py</div></td></tr><tr><td style="font-weight:bold;vertical-align:top;">cmd_args</td><td style="vertical-align:top;">:</td><td><div><table></table></div></td></tr><tr><td style="font-weight:bold;vertical-align:top;">cmd_options</td><td style="vertical-align:top;">:</td><td><div>&lt;Values at 0x3e18808: {&#x27;verbose&#x27;: False, &#x27;ip&#x27;: &#x27;127.0.0.1&#x27;, &#x27;debuglevel&#x27;: 30, &#x27;with_scheduler&#x27;: False, &#x27;shutdown_timeout&#x27;: 5, &#x27;taskbar&#x27;: False, &#x27;with_coverage&#x27;: False, &#x27;pid_filename&#x27;: &#x27;httpserver.pid&#x27;, &#x27;maxthreads&#x27;: None, &#x27;softcron&#x27;: False, &#x27;server_name&#x27;: &#x27;WIN-9N3BQFPPR1C&#x27;, &#x27;bpython&#x27;: False, &#x27;nogui&#x27;: False, &#x27;port&#x27;: 8000, &#x27;print_errors&#x27;: False, &#x27;extcron&#x27;: False, &#x27;runcron&#x27;: False, &#x27;run_system_tests&#x27;: False, &#x27;test&#x27;: None, &#x27;folder&#x27;: &#x27;C:\\\\web2py&#x27;, &#x27;config&#x27;: &#x27;&#x27;, &#x27;minthreads&#x27;: None, &#x27;shell&#x27;: None, &#x27;run&#x27;: &#x27;&#x27;, &#x27;log_filename&#x27;: &#x27;httpserver.log&#x27;, &#x27;profiler_dir&#x27;: None, &#x27;args&#x27;: [&#x27;&#x27;], &#x27;socket_timeout&#x27;: 5, &#x27;ssl_ca_certificate&#x27;: None, &#x27;scheduler&#x27;: None, &#x27;interfaces&#x27;: None, &#x27;ssl_private_key&#x27;: &#x27;&#x27;, &#x27;gae&#x27;: None, &#x27;password&#x27;: &#x27;******&#x27;, &#x27;request_queue_size&#x27;: 5, &#x27;ssl_certificate&#x27;: &#x27;&#x27;, &#x27;cronjob&#x27;: False, &#x27;numthreads&#x27;: None, &#x27;quiet&#x27;: False, &#x27;import_models&#x27;: False, &#x27;timeout&#x27;: 10, &#x27;plain&#x27;: False, &#x27;nobanner&#x27;: False}&gt;</div></td></tr><tr><td style="font-weight:bold;vertical-align:top;">db_sessions</td><td style="vertical-align:top;">:</td><td><div>set([])</div></td></tr><tr><td style="font-weight:bold;vertical-align:top;">debugging</td><td style="vertical-align:top;">:</td><td><div>True</div></td></tr><tr><td style="font-weight:bold;vertical-align:top;">gluon_parent</td><td style="vertical-align:top;">:</td><td><div>C:\\web2py</div></td></tr><tr><td style="font-weight:bold;vertical-align:top;">is_jython</td><td style="vertical-align:top;">:</td><td><div>False</div></td></tr><tr><td style="font-weight:bold;vertical-align:top;">is_py2</td><td style="vertical-align:top;">:</td><td><div>True</div></td></tr><tr><td style="font-weight:bold;vertical-align:top;">is_pypy</td><td style="vertical-align:top;">:</td><td><div>False</div></td></tr><tr><td style="font-weight:bold;vertical-align:top;">is_source</td><td style="vertical-align:top;">:</td><td><div>True</div></td></tr><tr><td style="font-weight:bold;vertical-align:top;">local_hosts</td><td style="vertical-align:top;">:</td><td><div><table><tr><td><div>fe80::a0d3:8d7d:3c66:3f6f%12</div></td></tr><tr><td><div>::ffff:127.0.0.1</div></td></tr><tr><td><div>::1</div></td></tr><tr><td><div>WIN-9N3BQFPPR1C</div></td></tr><tr><td><div>WIN-9N3BQFPPR1C.ap-south-1.compute.internal</div></td></tr><tr><td><div>172.31.12.204</div></td></tr><tr><td><div>127.0.0.1</div></td></tr></table></div></td></tr><tr><td style="font-weight:bold;vertical-align:top;">web2py_version</td><td style="vertical-align:top;">:</td><td><div>2.16.1-stable+timestamp.2017.11.14.05.54.25</div></td></tr></table></div></td></tr><tr><td style="font-weight:bold;vertical-align:top;">is_https</td><td style="vertical-align:top;">:</td><td><div>False</div></td></tr><tr><td style="font-weight:bold;vertical-align:top;">is_local</td><td style="vertical-align:top;">:</td><td><div>True</div></td></tr><tr><td style="font-weight:bold;vertical-align:top;">is_restful</td><td style="vertical-align:top;">:</td><td><div>False</div></td></tr><tr><td style="font-weight:bold;vertical-align:top;">is_scheduler</td><td style="vertical-align:top;">:</td><td><div>False</div></td></tr><tr><td style="font-weight:bold;vertical-align:top;">is_shell</td><td style="vertical-align:top;">:</td><td><div>False</div></td></tr><tr><td style="font-weight:bold;vertical-align:top;">now</td><td style="vertical-align:top;">:</td><td><div>datetime.datetime(2017, 12, 23, 14, 33, 26, 702000)</div></td></tr><tr><td style="font-weight:bold;vertical-align:top;">raw_args</td><td style="vertical-align:top;">:</td><td><div></div></td></tr><tr><td style="font-weight:bold;vertical-align:top;">raw_extension</td><td style="vertical-align:top;">:</td><td><div>None</div></td></tr><tr><td style="font-weight:bold;vertical-align:top;">url</td><td style="vertical-align:top;">:</td><td><div>/test/default/index</div></td></tr><tr><td style="font-weight:bold;vertical-align:top;">utcnow</td><td style="vertical-align:top;">:</td><td><div>datetime.datetime(2017, 12, 23, 9, 3, 26, 702000)</div></td></tr><tr><td style="font-weight:bold;vertical-align:top;">wsgi</td><td style="vertical-align:top;">:</td><td><div>&lt;gluon.main.LazyWSGI object at 0x0000000009C6AAC8&gt;</div></td></tr></table></div>'
tRp60
sS'frames'
p61
(lp62
(dp63
S'file'
p64
S'C:\\web2py\\gluon\\restricted.py'
p65
sS'dump'
p66
(dp67
S'environment'
p68
S"{'A': <class 'gluon.html.A'>, 'ANY_OF': <class 'gluon.validators.ANY_OF'>, 'ASSIGNJS': <function ASSIGNJS>, 'AppConfig': <function AppConfig>, 'Auth': <class 'gluon.tools.Auth'>, 'B': <class 'gluon.html.B'>, 'BEAUTIFY': <class 'gluon.html.BEAUTIFY'>, 'BODY': <class 'gluon.html.BODY'>, 'BR': <class 'gluon.html.BR'>, 'BUTTON': <class 'gluon.html.BUTTON'>, ...}"
p69
sS'ccode'
p70
S'<code object <module> at 000000000A301EB0, file ...lications\\test\\views\\default/index.html", line 1>'
p71
ssS'lnum'
p72
I219
sS'lines'
p73
(dp74
I214
S'    if environment is None:'
p75
sI215
S'        environment = {}'
p76
sI216
S"    environment['__file__'] = layer"
p77
sI217
S"    environment['__name__'] = '__restricted__'"
p78
sI218
S'    try:'
p79
sI219
S'        exec(ccode, environment)'
p80
sI220
S'    except HTTP:'
p81
sI221
S'        raise'
p82
sI222
S'    except RestrictedError:'
p83
sI223
S'        # do not encapsulate (obfuscate) the original RestrictedError'
p84
ssS'call'
p85
S'(ccode=<code object <module> at 000000000A301EB0, file ...lications\\test\\views\\default/index.html", line 1>, environment={\'A\': <class \'gluon.html.A\'>, \'ANY_OF\': <class \'gluon.validators.ANY_OF\'>, \'ASSIGNJS\': <function ASSIGNJS>, \'AppConfig\': <function AppConfig>, \'Auth\': <class \'gluon.tools.Auth\'>, \'B\': <class \'gluon.html.B\'>, \'BEAUTIFY\': <class \'gluon.html.BEAUTIFY\'>, \'BODY\': <class \'gluon.html.BODY\'>, \'BR\': <class \'gluon.html.BR\'>, \'BUTTON\': <class \'gluon.html.BUTTON\'>, ...}, layer=r\'C:\\web2py\\applications\\test\\views\\default/index.html\', scode=\'response.write(\\\'\\\\n<!DOCTYPE html>\\\\n<html lang="e...</script>\\\\n\\\\n  </body>\\\\n</html>\\\\n\\\', escape=False)\')'
p86
sS'func'
p87
S'restricted'
p88
sa(dp89
g64
S'C:\\web2py\\applications\\test\\views\\default\\index.html'
p90
sg66
(dp91
S'Respond'
p92
S'undefined'
p93
sS'IE8'
p94
g93
sS'elements'
p95
g93
sS'Shim'
p96
g93
sS'of'
p97
g93
sS'support'
p98
g93
sS'queries'
p99
g93
sS'HTML5'
p100
g93
sS'media'
p101
g93
ssg72
I32
sg73
(dp102
I32
S'    response.write(x.id)'
p103
sI33
S'    response.write("\' />\\n             <input type=\'hidden\' name=\'productId\' value=\'", escape=False)'
p104
sI34
S'    response.write(x.id)'
p105
sI35
S'    response.write(\'\\\' />\\n             <input type=\\\'text\\\' size=2 name=\\\'qty\\\'  /><input class=\\\'btn-primary\\\' type=\\\'submit\\\' value=\\\'Add to Cart\\\'>    \\n           </form>\\n        </p>\\n       <p>\\n                          \\n          <div class="modal fade" id="modal-email">\\n          <div class="modal-dialog modal-md">\\n            <div class="modal-content">\\n              <form  method=post action=\\\'index\\\'>\\n                <div class="modal-header ">\\n                  <button type="button" class="close" data-dismiss="modal" aria-label="Close"><span aria-hidden="true">&times;</span></button>\\n                  <h4 class="modal-title" >Apply for job:</h4>\\n                </div>\\n                <div class="modal-body">\\n                  <div class="form-group">\\n                    <input type="text" name=\\\'jobpost_id\\\' value=\\\'\', escape=False)'
p106
sI36
S'    response.write(x[0])'
p107
sI37
S'    response.write(\'\\\' class="form-control "  placeholder="Enter Email">\\n                  </div>\\n                  <div class="form-group">\\n                    <input type="text" name=\\\'post_date\\\' value=\\\'\', escape=False)'
p108
sI38
S'    response.write(request.now)'
p109
sI39
S'    response.write(\'\\\' class="form-control "  placeholder="Enter Email">\\n                  </div>\\n                  <div class="form-group">\\n                    <label>Your IF CAT test id</label>\\n                    <input type="text" name=\\\'ifcat\\\' class="form-control "   placeholder="Enter ID CAT ID" required>\\n                  </div>\\n   \\n                </div>\\n                <div class="modal-footer">\\n                  <button type="button" class="btn btn-default btn-theme" data-dismiss="modal">Close</button>\\n                  <button type="submit" class="btn btn-success btn-theme">Apply</button>\\n                </div>\\n              </form>\\n            </div>\\n          </div>\\n        </div>\\n       </p>\\n        <p>\\n            Posted by: &nbsp; \', escape=False)'
p110
sI40
S'    response.write(userdict[x[15]])'
p111
sI41
S"    response.write('\\n        </p>       \\n    </div>\\n</div>\\n<hr/>\\n', escape=False)"
p112
sI42
S'    pass'
p113
sI23
S"    response.write('\\n        </p>\\n        <p>\\n           <b>Openings:</b> ', escape=False)"
p114
sI24
S'    response.write(x[12])'
p115
sI25
S"    response.write('\\n        </p>\\n        <p>\\n            <b>Company Name: </b>', escape=False)"
p116
sI26
S'    response.write(x[7])'
p117
sI27
S'    response.write("\\n        </p>\\n        <p>\\n            <a href=\'", escape=False)'
p118
sI28
S'    response.write(x[9])'
p119
sI29
S'    response.write("\' target=\'_new\'>", escape=False)'
p120
sI30
S'    response.write(x[9])'
p121
sI31
S'    response.write("</a>\\n              <form method=post action=\'proc\'>\\n             <input type=\'hidden\' name=\'productId\' value=\'", escape=False)'
p122
ssg85
S'()'
p123
sg87
S'<module>'
p124
sasS'pyver'
p125
S'Python 2.7.14: C:\\Python27\\python.exe (prefix: C:\\Python27)'
p126
sS'session'
p127
g59
(S's\x1a\x00\x00\x00<div><table></table></div>'
tRp128
sS'etype'
p129
S"<type 'exceptions.AttributeError'>"
p130
sS'date'
p131
S'Sat Dec 23 14:33:26 2017'
p132
sS'response'
p133
g59
(S's\x8b;\x00\x00<div><table><tr><td style="font-weight:bold;vertical-align:top;">body</td><td style="vertical-align:top;">:</td><td><div>&lt;cStringIO.StringO object at 0x000000000A1A8D88&gt;</div></td></tr><tr><td style="font-weight:bold;vertical-align:top;">cookies</td><td style="vertical-align:top;">:</td><td><div><table><tr><td style="font-weight:bold;vertical-align:top;">session_id_test</td><td style="vertical-align:top;">:</td><td><div>127.0.0.1-2c184032-85f5-4d62-838b-d54119c0fc03<table><tr><td style="font-weight:bold;vertical-align:top;">comment</td><td style="vertical-align:top;">:</td><td><div></div></td></tr><tr><td style="font-weight:bold;vertical-align:top;">domain</td><td style="vertical-align:top;">:</td><td><div></div></td></tr><tr><td style="font-weight:bold;vertical-align:top;">expires</td><td style="vertical-align:top;">:</td><td><div></div></td></tr><tr><td style="font-weight:bold;vertical-align:top;">httponly</td><td style="vertical-align:top;">:</td><td><div></div></td></tr><tr><td style="font-weight:bold;vertical-align:top;">max-age</td><td style="vertical-align:top;">:</td><td><div></div></td></tr><tr><td style="font-weight:bold;vertical-align:top;">path</td><td style="vertical-align:top;">:</td><td><div>/</div></td></tr><tr><td style="font-weight:bold;vertical-align:top;">secure</td><td style="vertical-align:top;">:</td><td><div></div></td></tr><tr><td style="font-weight:bold;vertical-align:top;">version</td><td style="vertical-align:top;">:</td><td><div></div></td></tr></table></div></td></tr></table></div></td></tr><tr><td style="font-weight:bold;vertical-align:top;">delimiters</td><td style="vertical-align:top;">:</td><td><div><table><tr><td><div>{{</div></td></tr><tr><td><div>}}</div></td></tr></table></div></td></tr><tr><td style="font-weight:bold;vertical-align:top;">files</td><td style="vertical-align:top;">:</td><td><div><table></table></div></td></tr><tr><td style="font-weight:bold;vertical-align:top;">flash</td><td style="vertical-align:top;">:</td><td><div>problem</div></td></tr><tr><td style="font-weight:bold;vertical-align:top;">form_label_separator</td><td style="vertical-align:top;">:</td><td><div></div></td></tr><tr><td style="font-weight:bold;vertical-align:top;">formstyle</td><td style="vertical-align:top;">:</td><td><div>bootstrap4_inline</div></td></tr><tr><td style="font-weight:bold;vertical-align:top;">generic_patterns</td><td style="vertical-align:top;">:</td><td><div><table><tr><td><div>*</div></td></tr></table></div></td></tr><tr><td style="font-weight:bold;vertical-align:top;">google_analytics_id</td><td style="vertical-align:top;">:</td><td><div>None</div></td></tr><tr><td style="font-weight:bold;vertical-align:top;">headers</td><td style="vertical-align:top;">:</td><td><div><table><tr><td style="font-weight:bold;vertical-align:top;">X-Powered-By</td><td style="vertical-align:top;">:</td><td><div>web2py</div></td></tr></table></div></td></tr><tr><td style="font-weight:bold;vertical-align:top;">menu</td><td style="vertical-align:top;">:</td><td><div><table><tr><td><div><table><tr><td><div>Home</div></td></tr><tr><td><div>False</div></td></tr><tr><td><div>/test/default/index</div></td></tr><tr><td><div><table></table></div></td></tr></table></div></td></tr><tr><td><div><table><tr><td><div>My Sites</div></td></tr><tr><td><div>False</div></td></tr><tr><td><div>/admin/default/site</div></td></tr></table></div></td></tr><tr><td><div><table><tr><td><div>This App</div></td></tr><tr><td><div>False</div></td></tr><tr><td><div>#</div></td></tr><tr><td><div><table><tr><td><div><table><tr><td><div>Design</div></td></tr><tr><td><div>False</div></td></tr><tr><td><div>/admin/default/design/test</div></td></tr></table></div></td></tr><tr><td><div><table><tr><td><div>Controller</div></td></tr><tr><td><div>False</div></td></tr><tr><td><div>/admin/default/edit/test/controllers/default.py</div></td></tr></table></div></td></tr><tr><td><div><table><tr><td><div>View</div></td></tr><tr><td><div>False</div></td></tr><tr><td><div>/admin/default/edit/test/views/default/index.html</div></td></tr></table></div></td></tr><tr><td><div><table><tr><td><div>DB Model</div></td></tr><tr><td><div>False</div></td></tr><tr><td><div>/admin/default/edit/test/models/db.py</div></td></tr></table></div></td></tr><tr><td><div><table><tr><td><div>Menu Model</div></td></tr><tr><td><div>False</div></td></tr><tr><td><div>/admin/default/edit/test/models/menu.py</div></td></tr></table></div></td></tr><tr><td><div><table><tr><td><div>Config.ini</div></td></tr><tr><td><div>False</div></td></tr><tr><td><div>/admin/default/edit/test/private/appconfig.ini</div></td></tr></table></div></td></tr><tr><td><div><table><tr><td><div>Layout</div></td></tr><tr><td><div>False</div></td></tr><tr><td><div>/admin/default/edit/test/views/layout.html</div></td></tr></table></div></td></tr><tr><td><div><table><tr><td><div>Stylesheet</div></td></tr><tr><td><div>False</div></td></tr><tr><td><div>/admin/default/edit/test/static/css/web2py-bootstrap3.css</div></td></tr></table></div></td></tr><tr><td><div><table><tr><td><div>Database</div></td></tr><tr><td><div>False</div></td></tr><tr><td><div>/test/appadmin/index</div></td></tr></table></div></td></tr><tr><td><div><table><tr><td><div>Errors</div></td></tr><tr><td><div>False</div></td></tr><tr><td><div>/admin/default/errors/test</div></td></tr></table></div></td></tr><tr><td><div><table><tr><td><div>About</div></td></tr><tr><td><div>False</div></td></tr><tr><td><div>/admin/default/about/test</div></td></tr></table></div></td></tr></table></div></td></tr></table></div></td></tr><tr><td><div><table><tr><td><div>web2py.com</div></td></tr><tr><td><div>False</div></td></tr><tr><td><div>#</div></td></tr><tr><td><div><table><tr><td><div><table><tr><td><div>Download</div></td></tr><tr><td><div>False</div></td></tr><tr><td><div>http://www.web2py.com/examples/default/download</div></td></tr></table></div></td></tr><tr><td><div><table><tr><td><div>Support</div></td></tr><tr><td><div>False</div></td></tr><tr><td><div>http://www.web2py.com/examples/default/support</div></td></tr></table></div></td></tr><tr><td><div><table><tr><td><div>Demo</div></td></tr><tr><td><div>False</div></td></tr><tr><td><div>http://web2py.com/demo_admin</div></td></tr></table></div></td></tr><tr><td><div><table><tr><td><div>Quick Examples</div></td></tr><tr><td><div>False</div></td></tr><tr><td><div>http://web2py.com/examples/default/examples</div></td></tr></table></div></td></tr><tr><td><div><table><tr><td><div>FAQ</div></td></tr><tr><td><div>False</div></td></tr><tr><td><div>http://web2py.com/AlterEgo</div></td></tr></table></div></td></tr><tr><td><div><table><tr><td><div>Videos</div></td></tr><tr><td><div>False</div></td></tr><tr><td><div>http://www.web2py.com/examples/default/videos/</div></td></tr></table></div></td></tr><tr><td><div><table><tr><td><div>Free Applications</div></td></tr><tr><td><div>False</div></td></tr><tr><td><div>http://web2py.com/appliances</div></td></tr></table></div></td></tr><tr><td><div><table><tr><td><div>Plugins</div></td></tr><tr><td><div>False</div></td></tr><tr><td><div>http://web2py.com/plugins</div></td></tr></table></div></td></tr><tr><td><div><table><tr><td><div>Recipes</div></td></tr><tr><td><div>False</div></td></tr><tr><td><div>http://web2pyslices.com/</div></td></tr></table></div></td></tr></table></div></td></tr></table></div></td></tr><tr><td><div><table><tr><td><div>Documentation</div></td></tr><tr><td><div>False</div></td></tr><tr><td><div>#</div></td></tr><tr><td><div><table><tr><td><div><table><tr><td><div>Online book</div></td></tr><tr><td><div>False</div></td></tr><tr><td><div>http://www.web2py.com/book</div></td></tr></table></div></td></tr><tr><td><div><table><tr><td><div>Preface</div></td></tr><tr><td><div>False</div></td></tr><tr><td><div>http://www.web2py.com/book/default/chapter/00</div></td></tr></table></div></td></tr><tr><td><div><table><tr><td><div>Introduction</div></td></tr><tr><td><div>False</div></td></tr><tr><td><div>http://www.web2py.com/book/default/chapter/01</div></td></tr></table></div></td></tr><tr><td><div><table><tr><td><div>Python</div></td></tr><tr><td><div>False</div></td></tr><tr><td><div>http://www.web2py.com/book/default/chapter/02</div></td></tr></table></div></td></tr><tr><td><div><table><tr><td><div>Overview</div></td></tr><tr><td><div>False</div></td></tr><tr><td><div>http://www.web2py.com/book/default/chapter/03</div></td></tr></table></div></td></tr><tr><td><div><table><tr><td><div>The Core</div></td></tr><tr><td><div>False</div></td></tr><tr><td><div>http://www.web2py.com/book/default/chapter/04</div></td></tr></table></div></td></tr><tr><td><div><table><tr><td><div>The Views</div></td></tr><tr><td><div>False</div></td></tr><tr><td><div>http://www.web2py.com/book/default/chapter/05</div></td></tr></table></div></td></tr><tr><td><div><table><tr><td><div>Database</div></td></tr><tr><td><div>False</div></td></tr><tr><td><div>http://www.web2py.com/book/default/chapter/06</div></td></tr></table></div></td></tr><tr><td><div><table><tr><td><div>Forms and Validators</div></td></tr><tr><td><div>False</div></td></tr><tr><td><div>http://www.web2py.com/book/default/chapter/07</div></td></tr></table></div></td></tr><tr><td><div><table><tr><td><div>Email and SMS</div></td></tr><tr><td><div>False</div></td></tr><tr><td><div>http://www.web2py.com/book/default/chapter/08</div></td></tr></table></div></td></tr><tr><td><div><table><tr><td><div>Access Control</div></td></tr><tr><td><div>False</div></td></tr><tr><td><div>http://www.web2py.com/book/default/chapter/09</div></td></tr></table></div></td></tr><tr><td><div><table><tr><td><div>Services</div></td></tr><tr><td><div>False</div></td></tr><tr><td><div>http://www.web2py.com/book/default/chapter/10</div></td></tr></table></div></td></tr><tr><td><div><table><tr><td><div>Ajax Recipes</div></td></tr><tr><td><div>False</div></td></tr><tr><td><div>http://www.web2py.com/book/default/chapter/11</div></td></tr></table></div></td></tr><tr><td><div><table><tr><td><div>Components and Plugins</div></td></tr><tr><td><div>False</div></td></tr><tr><td><div>http://www.web2py.com/book/default/chapter/12</div></td></tr></table></div></td></tr><tr><td><div><table><tr><td><div>Deployment Recipes</div></td></tr><tr><td><div>False</div></td></tr><tr><td><div>http://www.web2py.com/book/default/chapter/13</div></td></tr></table></div></td></tr><tr><td><div><table><tr><td><div>Other Recipes</div></td></tr><tr><td><div>False</div></td></tr><tr><td><div>http://www.web2py.com/book/default/chapter/14</div></td></tr></table></div></td></tr><tr><td><div><table><tr><td><div>Helping web2py</div></td></tr><tr><td><div>False</div></td></tr><tr><td><div>http://www.web2py.com/book/default/chapter/15</div></td></tr></table></div></td></tr><tr><td><div><table><tr><td><div>Buy web2py\'s book</div></td></tr><tr><td><div>False</div></td></tr><tr><td><div>http://stores.lulu.com/web2py</div></td></tr></table></div></td></tr></table></div></td></tr></table></div></td></tr><tr><td><div><table><tr><td><div>Community</div></td></tr><tr><td><div>False</div></td></tr><tr><td><div>None</div></td></tr><tr><td><div><table><tr><td><div><table><tr><td><div>Groups</div></td></tr><tr><td><div>False</div></td></tr><tr><td><div>http://www.web2py.com/examples/default/usergroups</div></td></tr></table></div></td></tr><tr><td><div><table><tr><td><div>Twitter</div></td></tr><tr><td><div>False</div></td></tr><tr><td><div>http://twitter.com/web2py</div></td></tr></table></div></td></tr><tr><td><div><table><tr><td><div>Live Chat</div></td></tr><tr><td><div>False</div></td></tr><tr><td><div>http://webchat.freenode.net/?channels=web2py</div></td></tr></table></div></td></tr></table></div></td></tr></table></div></td></tr></table></div></td></tr><tr><td style="font-weight:bold;vertical-align:top;">meta</td><td style="vertical-align:top;">:</td><td><div><table><tr><td style="font-weight:bold;vertical-align:top;">author</td><td style="vertical-align:top;">:</td><td><div>Your Name &lt;you@example.com&gt;</div></td></tr><tr><td style="font-weight:bold;vertical-align:top;">description</td><td style="vertical-align:top;">:</td><td><div>a cool new app</div></td></tr><tr><td style="font-weight:bold;vertical-align:top;">generator</td><td style="vertical-align:top;">:</td><td><div>Web2py Web Framework</div></td></tr><tr><td style="font-weight:bold;vertical-align:top;">keywords</td><td style="vertical-align:top;">:</td><td><div><table><tr><td><div>web2py</div></td></tr><tr><td><div>python</div></td></tr><tr><td><div>framework</div></td></tr></table></div></td></tr></table></div></td></tr><tr><td style="font-weight:bold;vertical-align:top;">models_to_run</td><td style="vertical-align:top;">:</td><td><div><table><tr><td><div>^\\w+\\.py$</div></td></tr><tr><td><div>^default/\\w+\\.py$</div></td></tr><tr><td><div>^default/index/\\w+\\.py$</div></td></tr></table></div></td></tr><tr><td style="font-weight:bold;vertical-align:top;">postprocessing</td><td style="vertical-align:top;">:</td><td><div><table></table></div></td></tr><tr><td style="font-weight:bold;vertical-align:top;">session_client</td><td style="vertical-align:top;">:</td><td><div>127.0.0.1</div></td></tr><tr><td style="font-weight:bold;vertical-align:top;">session_cookie_compression_level</td><td style="vertical-align:top;">:</td><td><div>None</div></td></tr><tr><td style="font-weight:bold;vertical-align:top;">session_cookie_expires</td><td style="vertical-align:top;">:</td><td><div>None</div></td></tr><tr><td style="font-weight:bold;vertical-align:top;">session_data_name</td><td style="vertical-align:top;">:</td><td><div>session_data_test</div></td></tr><tr><td style="font-weight:bold;vertical-align:top;">session_file</td><td style="vertical-align:top;">:</td><td><div>None</div></td></tr><tr><td style="font-weight:bold;vertical-align:top;">session_filename</td><td style="vertical-align:top;">:</td><td><div>C:\\web2py\\applications\\test\\sessions\\127.0.0.1-2c184032-85f5-4d62-838b-d54119c0fc03</div></td></tr><tr><td style="font-weight:bold;vertical-align:top;">session_hash</td><td style="vertical-align:top;">:</td><td><div>c0762cbf4baf7f9af97c051e7fcb8083</div></td></tr><tr><td style="font-weight:bold;vertical-align:top;">session_id</td><td style="vertical-align:top;">:</td><td><div>127.0.0.1-2c184032-85f5-4d62-838b-d54119c0fc03</div></td></tr><tr><td style="font-weight:bold;vertical-align:top;">session_id_name</td><td style="vertical-align:top;">:</td><td><div>session_id_test</div></td></tr><tr><td style="font-weight:bold;vertical-align:top;">session_masterapp</td><td style="vertical-align:top;">:</td><td><div>test</div></td></tr><tr><td style="font-weight:bold;vertical-align:top;">session_new</td><td style="vertical-align:top;">:</td><td><div>True</div></td></tr><tr><td style="font-weight:bold;vertical-align:top;">session_storage_type</td><td style="vertical-align:top;">:</td><td><div>file</div></td></tr><tr><td style="font-weight:bold;vertical-align:top;">status</td><td style="vertical-align:top;">:</td><td><div>200</div></td></tr><tr><td style="font-weight:bold;vertical-align:top;">view</td><td style="vertical-align:top;">:</td><td><div>default/index.html</div></td></tr></table></div>'
tRp134
sS'locals'
p135
(dp136
S'userdict'
p137
S"{1L: 'sandeep patel', 2L: 'vaibhav jain', 7L: 'sandeep1 patel', 8L: 'anjali srivastava', 9L: 'manish patel'}"
p138
sS'PY2'
p139
S'True'
p140
sS'OBJECT'
p141
S"<class 'gluon.html.OBJECT'>"
p142
sS'SQLDB'
p143
S"<class 'pydal.base.DAL'>"
p144
sg127
S'<Storage {}>'
p145
sS'LINK'
p146
S"<class 'gluon.html.LINK'>"
p147
sS'BR'
p148
S"<class 'gluon.html.BR'>"
p149
sS'local_import'
p150
S'<function <lambda>>'
p151
sS'OPTGROUP'
p152
S"<class 'gluon.html.OPTGROUP'>"
p153
sS'__package__'
p154
S'None'
p155
sS'PRE'
p156
S"<class 'gluon.html.PRE'>"
p157
sS'IS_INT_IN_RANGE'
p158
S"<class 'gluon.validators.IS_INT_IN_RANGE'>"
p159
sS'to_bytes'
p160
S'<function to_bytes>'
p161
sS'IS_LOWER'
p162
S"<class 'gluon.validators.IS_LOWER'>"
p163
sS'IS_STRONG'
p164
S"<class 'gluon.validators.IS_STRONG'>"
p165
sS'cache'
p166
S'<gluon.cache.Cache object>'
p167
sS'IS_IN_DB'
p168
S"<class 'gluon.validators.IS_IN_DB'>"
p169
sS'TAG'
p170
S'<gluon.html.__TAG__ object>'
p171
sS'SQLField'
p172
S"<class 'pydal.objects.Field'>"
p173
sS'mail'
p174
S'<gluon.tools.Mail object>'
p175
sS'BODY'
p176
S"<class 'gluon.html.BODY'>"
p177
sS'IS_DATE_IN_RANGE'
p178
S"<class 'gluon.validators.IS_DATE_IN_RANGE'>"
p179
sS'IFRAME'
p180
S"<class 'gluon.html.IFRAME'>"
p181
sS'URL'
p182
S'<function URL>'
p183
sS'__file__'
p184
S"r'C:\\web2py\\applications\\test\\views\\default/index.html'"
p185
sS'db'
p186
S'<DAL uri="mysql:******@mysaflata.cgaqtjjdhgni.ap-south-1.rds.amazonaws.com/corporates">'
p187
sS'auth'
p188
S'<gluon.tools.Auth object>'
p189
sS'P'
S"<class 'gluon.html.P'>"
p190
sS'T'
S'<gluon.languages.translator object>'
p191
sS'iteritems'
p192
S'<function <lambda>>'
p193
sS'XHTML'
p194
S"<class 'gluon.html.XHTML'>"
p195
sS'ON'
p196
g140
sS'OL'
p197
S"<class 'gluon.html.OL'>"
p198
sS'TEXTAREA'
p199
S"<class 'gluon.html.TEXTAREA'>"
p200
sS'MENU'
p201
S"<class 'gluon.html.MENU'>"
p202
sS'IS_IMAGE'
p203
S"<class 'gluon.validators.IS_IMAGE'>"
p204
sS'x'
S"(2, u'Cogoport Developer Hiring Challenge', u'Cogoport is seeking exceptional, passionate an... Service Management domain.\\r\\n\\r\\nRegister Now!', u'https://www.clevero.com/img/clevero-slider.png', u'active', u'Developer', u'15', u'Robodia Techonoly', u'vidisha', u'https://www.robodia.com/', 15, u'Mumbai', u'10', u'T', datetime.datetime(2017, 12, 18, 18, 0, 8), 1, datetime.datetime(2017, 12, 18, 18, 0, 8), 1)"
p205
sS'EM'
p206
S"<class 'gluon.html.EM'>"
p207
sS'CODE'
p208
S"<class 'gluon.html.CODE'>"
p209
sS'HTTP'
p210
S"<class 'gluon.http.HTTP'>"
p211
sS'HR'
p212
S"<class 'gluon.html.HR'>"
p213
sS'IS_DATETIME'
p214
S"<class 'gluon.validators.IS_DATETIME'>"
p215
sS'reduce'
p216
S'<built-in function reduce>'
p217
sS'STYLE'
p218
S"<class 'gluon.html.STYLE'>"
p219
sS'LABEL'
p220
S"<class 'gluon.html.LABEL'>"
p221
sS'CLEANUP'
p222
S"<class 'gluon.validators.CLEANUP'>"
p223
sS'SELECT'
p224
S"<class 'gluon.html.SELECT'>"
p225
sS'userrows'
p226
S'<Rows (5)>'
p227
sS'CENTER'
p228
S"<class 'gluon.html.CENTER'>"
p229
sS'Auth'
p230
S"<class 'gluon.tools.Auth'>"
p231
sS'__builtins__'
p232
S"{'ArithmeticError': <type 'exceptions.ArithmeticError'>, 'AssertionError': <type 'exceptions.AssertionError'>, 'AttributeError': <type 'exceptions.AttributeError'>, 'BaseException': <type 'exceptions.BaseException'>, 'BufferError': <type 'exceptions.BufferError'>, 'BytesWarning': <type 'exceptions.BytesWarning'>, 'DeprecationWarning': <type 'exceptions.DeprecationWarning'>, 'EOFError': <type 'exceptions.EOFError'>, 'Ellipsis': Ellipsis, 'EnvironmentError': <type 'exceptions.EnvironmentError'>, ...}"
p233
sS'HTML'
p234
S"<class 'gluon.html.HTML'>"
p235
sS'SQLFORM'
p236
S"<class 'gluon.sqlhtml.SQLFORM'>"
p237
sS'LOAD'
p238
S'<function LOAD>'
p239
sS'redirect'
p240
S'<function redirect>'
p241
sS'FIELDSET'
p242
S"<class 'gluon.html.FIELDSET'>"
p243
sS'IS_EQUAL_TO'
p244
S"<class 'gluon.validators.IS_EQUAL_TO'>"
p245
sS'embed64'
p246
S'<function embed64>'
p247
sS'IS_LIST_OF'
p248
S"<class 'gluon.validators.IS_LIST_OF'>"
p249
sS'INPUT'
p250
S"<class 'gluon.html.INPUT'>"
p251
sS'EMBED'
p252
S"<class 'gluon.html.EMBED'>"
p253
sS'configuration'
p254
S"{'host': {'names': 'localhost:*, 127.0.0.1:*, *:...': 'sqlite://storage.sqlite', 'pool_size': '10'}}"
p255
sS'H2'
p256
S"<class 'gluon.html.H2'>"
p257
sS'H3'
p258
S"<class 'gluon.html.H3'>"
p259
sS'AppConfig'
p260
S'<function AppConfig>'
p261
sS'H1'
p262
S"<class 'gluon.html.H1'>"
p263
sS'H6'
p264
S"<class 'gluon.html.H6'>"
p265
sS'H4'
p266
S"<class 'gluon.html.H4'>"
p267
sS'H5'
p268
S"<class 'gluon.html.H5'>"
p269
sS'UL'
p270
S"<class 'gluon.html.UL'>"
p271
sS'IS_UPPER'
p272
S"<class 'gluon.validators.IS_UPPER'>"
p273
sS'xmlescape'
p274
S'<function xmlescape>'
p275
sS'IS_TIME'
p276
S"<class 'gluon.validators.IS_TIME'>"
p277
sS'OPTION'
p278
S"<class 'gluon.html.OPTION'>"
p279
sS'TITLE'
p280
S"<class 'gluon.html.TITLE'>"
p281
sS'CRYPT'
p282
S"<class 'gluon.validators.CRYPT'>"
p283
sS'IS_EMPTY_OR'
p284
S"<class 'gluon.validators.IS_EMPTY_OR'>"
p285
sS'MARKMIN'
p286
S"<class 'gluon.html.MARKMIN'>"
p287
sS'__name__'
p288
S"'__restricted__'"
p289
sS'STRONG'
p290
S"<class 'gluon.html.STRONG'>"
p291
sS'COL'
p292
S"<class 'gluon.html.COL'>"
p293
sS'rows'
p294
S"((2, u'Cogoport Developer Hiring Challenge', u'Cogoport is seeking exceptional, passionate an... Service Management domain.\\r\\n\\r\\nRegister Now!', u'https://www.clevero.com/img/clevero-slider.png', u'active', u'Developer', u'15', u'Robodia Techonoly', u'vidisha', u'https://www.robodia.com/', 15, u'Mumbai', u'10', u'T', datetime.datetime(2017, 12, 18, 18, 0, 8), 1, datetime.datetime(2017, 12, 18, 18, 0, 8), 1), (1, u'ServiceNow Developer Hiring Challenge', u'vffffffffffffffffffffffffffffffffffffff', u'https://www.csra.com/sites/default/files/servicenow_logo.png', u'active', u'Developer', u'5', u'Robodia Techonoly', u'vidisha', u'https://www.robodia.com/', 10, u'vidisha', u'5', u'T', datetime.datetime(2017, 12, 12, 13, 47, 31), 1, datetime.datetime(2017, 12, 12, 13, 47, 31), 1))"
p295
sS'SCRIPT'
p296
S"<class 'gluon.html.SCRIPT'>"
p297
sS'TABLE'
p298
S"<class 'gluon.html.TABLE'>"
p299
sS'IS_IPV4'
p300
S"<class 'gluon.validators.IS_IPV4'>"
p301
sS'IS_LENGTH'
p302
S"<class 'gluon.validators.IS_LENGTH'>"
p303
sS'IS_IPV6'
p304
S"<class 'gluon.validators.IS_IPV6'>"
p305
sS'XML'
p306
S"<class 'gluon.html.XML'>"
p307
sS'ANY_OF'
p308
S"<class 'gluon.validators.ANY_OF'>"
p309
sS'B'
S"<class 'gluon.html.B'>"
p310
sS'IMG'
p311
S"<class 'gluon.html.IMG'>"
p312
sS'SQLTABLE'
p313
S"<class 'gluon.sqlhtml.SQLTABLE'>"
p314
sS'IS_MATCH'
p315
S"<class 'gluon.validators.IS_MATCH'>"
p316
sS'IS_ALPHANUMERIC'
p317
S"<class 'gluon.validators.IS_ALPHANUMERIC'>"
p318
sS'_app'
p319
S"'test'"
p320
sS'SPAN'
p321
S"<class 'gluon.html.SPAN'>"
p322
sS'IS_JSON'
p323
S"<class 'gluon.validators.IS_JSON'>"
p324
sS'IS_IPADDRESS'
p325
S"<class 'gluon.validators.IS_IPADDRESS'>"
p326
sS'IS_SLUG'
p327
S"<class 'gluon.validators.IS_SLUG'>"
p328
sS'BEAUTIFY'
p329
S"<class 'gluon.html.BEAUTIFY'>"
p330
sS'META'
p331
S"<class 'gluon.html.META'>"
p332
sS'BUTTON'
p333
S"<class 'gluon.html.BUTTON'>"
p334
sS'IS_DATE'
p335
S"<class 'gluon.validators.IS_DATE'>"
p336
sS'IS_EMAIL'
p337
S"<class 'gluon.validators.IS_EMAIL'>"
p338
sS'IS_NOT_EMPTY'
p339
S"<class 'gluon.validators.IS_NOT_EMPTY'>"
p340
sS'xrange'
p341
S"<type 'xrange'>"
p342
sS'TBODY'
p343
S"<class 'gluon.html.TBODY'>"
p344
sS'CAT'
p345
S"<class 'gluon.html.CAT'>"
p346
sS'Field'
p347
S"<class 'pydal.objects.Field'>"
p348
sS'IS_LIST_OF_EMAILS'
p349
S"<class 'gluon.validators.IS_LIST_OF_EMAILS'>"
p350
sg58
S"<Storage {'_vars': None, 'function': 'index', 'c...>, 'folder': 'C:\\\\web2py\\\\applications\\\\test\\\\'}>"
p351
sS'DIV'
p352
S"<class 'gluon.html.DIV'>"
p353
sS'LEGEND'
p354
S"<class 'gluon.html.LEGEND'>"
p355
sS'to_native'
p356
S'<function to_native>'
p357
sS'COLGROUP'
p358
S"<class 'gluon.html.COLGROUP'>"
p359
sS'DAL'
p360
S"<class 'pydal.base.DAL'>"
p361
sS'ASSIGNJS'
p362
S'<function ASSIGNJS>'
p363
sS'TR'
p364
S"<class 'gluon.html.TR'>"
p365
sS'LI'
p366
S"<class 'gluon.html.LI'>"
p367
sS'TH'
p368
S"<class 'gluon.html.TH'>"
p369
sS'TD'
p370
S"<class 'gluon.html.TD'>"
p371
sS'IS_URL'
p372
S"<class 'gluon.validators.IS_URL'>"
p373
sS'A'
S"<class 'gluon.html.A'>"
p374
sS'HEAD'
p375
S"<class 'gluon.html.HEAD'>"
p376
sS'IS_DATETIME_IN_RANGE'
p377
S"<class 'gluon.validators.IS_DATETIME_IN_RANGE'>"
p378
sS'FORM'
p379
S"<class 'gluon.html.FORM'>"
p380
sS'I'
S"<class 'gluon.html.I'>"
p381
sS'IS_NOT_IN_DB'
p382
S"<class 'gluon.validators.IS_NOT_IN_DB'>"
p383
sg133
S"<Storage {'body': <cStringIO.StringO object at 0...000000000A9CC9E8>, 'view': 'default/index.html'}>"
p384
sS'THEAD'
p385
S"<class 'gluon.html.THEAD'>"
p386
sS'a'
S"'active'"
p387
sS'IS_NULL_OR'
p388
S"<class 'gluon.validators.IS_EMPTY_OR'>"
p389
sS'TFOOT'
p390
S"<class 'gluon.html.TFOOT'>"
p391
sS'IS_FLOAT_IN_RANGE'
p392
S"<class 'gluon.validators.IS_FLOAT_IN_RANGE'>"
p393
sS'IS_EXPR'
p394
S"<class 'gluon.validators.IS_EXPR'>"
p395
sS'IS_IN_SET'
p396
S"<class 'gluon.validators.IS_IN_SET'>"
p397
sS'IS_UPLOAD_FILENAME'
p398
S"<class 'gluon.validators.IS_UPLOAD_FILENAME'>"
p399
sS'TT'
p400
S"<class 'gluon.html.TT'>"
p401
sS'IS_DECIMAL_IN_RANGE'
p402
S"<class 'gluon.validators.IS_DECIMAL_IN_RANGE'>"
p403
sssS'traceback'
p404
S'Traceback (most recent call last):\n  File "C:\\web2py\\gluon\\restricted.py", line 219, in restricted\n    exec(ccode, environment)\n  File "C:\\web2py\\applications\\test\\views\\default/index.html", line 32, in <module>\n    <!-- HTML5 Shim and Respond.js IE8 support of HTML5 elements and media queries -->\nAttributeError: \'tuple\' object has no attribute \'id\'\n'
p405
s.